TMS320C2000 Assembler PC v15.12.3 Wed Jul 04 16:10:52 2018

Tools Copyright (c) 1996-2015 Texas Instruments Incorporated
C:\Users\a0393005\AppData\Local\Temp\1506410                         PAGE    1

       1              ;***************************************************************
       2              ;* TMS320C2000 C/C++ Codegen                   PC v15.12.3.LTS *
       3              ;* Date/Time created: Wed Jul 04 16:10:52 2018                 *
       4              ;***************************************************************
       5                      .compiler_opts --abi=coffabi --float_support=softlib --hll_source=on --mem_model:code=flat --mem_mode
       6        0002  FP      .set    XAR2
       7              
       8              $C$DW$CU        .dwtag  DW_TAG_compile_unit
       9                      .dwattr $C$DW$CU, DW_AT_name("C:/ti/motorware_drv8353/motorware_1_01_00_18/sw/drivers/drvic/drv8353/s
      10                      .dwattr $C$DW$CU, DW_AT_producer("TI TMS320C2000 C/C++ Codegen PC v15.12.3.LTS Copyright (c) 1996-201
      11                      .dwattr $C$DW$CU, DW_AT_TI_version(0x01)
      12                      .dwattr $C$DW$CU, DW_AT_comp_dir("C:\ti\motorware_drv8353\motorware_1_01_00_18\sw\solutions\instaspin
      13              ;**************************************************************
      14              ;* CINIT RECORDS                                              *
      15              ;**************************************************************
      16 00000000               .sect   ".cinit"
      17                      .align  1
      18 00000000 FFFF          .field          -1,16
      19 00000001 0000-         .field          _WaitTimeOut$2+0,32
         00000002 0000 
      20 00000003 0000          .bits   0,16                    ; _WaitTimeOut$2 @ 0
      21              
      22              
      23              $C$DW$1 .dwtag  DW_TAG_subprogram
      24                      .dwattr $C$DW$1, DW_AT_name("GPIO_setLow")
      25                      .dwattr $C$DW$1, DW_AT_TI_symbol_name("_GPIO_setLow")
      26                      .dwattr $C$DW$1, DW_AT_declaration
      27                      .dwattr $C$DW$1, DW_AT_external
      28              $C$DW$2 .dwtag  DW_TAG_formal_parameter
      29                      .dwattr $C$DW$2, DW_AT_type(*$C$DW$T$22)
      30              
      31              $C$DW$3 .dwtag  DW_TAG_formal_parameter
      32                      .dwattr $C$DW$3, DW_AT_type(*$C$DW$T$82)
      33              
      34                      .dwendtag $C$DW$1
      35              
      36              
      37              $C$DW$4 .dwtag  DW_TAG_subprogram
      38                      .dwattr $C$DW$4, DW_AT_name("SPI_resetRxFifo")
      39                      .dwattr $C$DW$4, DW_AT_TI_symbol_name("_SPI_resetRxFifo")
      40                      .dwattr $C$DW$4, DW_AT_declaration
      41                      .dwattr $C$DW$4, DW_AT_external
      42              $C$DW$5 .dwtag  DW_TAG_formal_parameter
      43                      .dwattr $C$DW$5, DW_AT_type(*$C$DW$T$20)
      44              
      45                      .dwendtag $C$DW$4
      46              
      47              
      48              $C$DW$6 .dwtag  DW_TAG_subprogram
      49                      .dwattr $C$DW$6, DW_AT_name("GPIO_setHigh")
      50                      .dwattr $C$DW$6, DW_AT_TI_symbol_name("_GPIO_setHigh")
      51                      .dwattr $C$DW$6, DW_AT_declaration
      52                      .dwattr $C$DW$6, DW_AT_external
      53              $C$DW$7 .dwtag  DW_TAG_formal_parameter
      54                      .dwattr $C$DW$7, DW_AT_type(*$C$DW$T$22)
TMS320C2000 Assembler PC v15.12.3 Wed Jul 04 16:10:52 2018

Tools Copyright (c) 1996-2015 Texas Instruments Incorporated
C:\Users\a0393005\AppData\Local\Temp\1506410                         PAGE    2

      55              
      56              $C$DW$8 .dwtag  DW_TAG_formal_parameter
      57                      .dwattr $C$DW$8, DW_AT_type(*$C$DW$T$82)
      58              
      59                      .dwendtag $C$DW$6
      60              
      61              
      62              $C$DW$9 .dwtag  DW_TAG_subprogram
      63                      .dwattr $C$DW$9, DW_AT_name("SPI_enableRxFifo")
      64                      .dwattr $C$DW$9, DW_AT_TI_symbol_name("_SPI_enableRxFifo")
      65                      .dwattr $C$DW$9, DW_AT_declaration
      66                      .dwattr $C$DW$9, DW_AT_external
      67              $C$DW$10        .dwtag  DW_TAG_formal_parameter
      68                      .dwattr $C$DW$10, DW_AT_type(*$C$DW$T$20)
      69              
      70                      .dwendtag $C$DW$9
      71              
      72 00000000       _WaitTimeOut$2: .usect  ".ebss",1,1,0
      73 00000001       _enableWaitTimeOut$1:   .usect  ".ebss",1,1,0
      74              $C$DW$11        .dwtag  DW_TAG_variable
      75                      .dwattr $C$DW$11, DW_AT_name("gDeviceVariant")
      76                      .dwattr $C$DW$11, DW_AT_TI_symbol_name("_gDeviceVariant")
      77                      .dwattr $C$DW$11, DW_AT_type(*$C$DW$T$69)
      78                      .dwattr $C$DW$11, DW_AT_declaration
      79                      .dwattr $C$DW$11, DW_AT_external
      80              
      81              
      82              $C$DW$12        .dwtag  DW_TAG_subprogram
      83                      .dwattr $C$DW$12, DW_AT_name("SPI_getRxFifoStatus")
      84                      .dwattr $C$DW$12, DW_AT_TI_symbol_name("_SPI_getRxFifoStatus")
      85                      .dwattr $C$DW$12, DW_AT_type(*$C$DW$T$103)
      86                      .dwattr $C$DW$12, DW_AT_declaration
      87                      .dwattr $C$DW$12, DW_AT_external
      88              $C$DW$13        .dwtag  DW_TAG_formal_parameter
      89                      .dwattr $C$DW$13, DW_AT_type(*$C$DW$T$20)
      90              
      91                      .dwendtag $C$DW$12
      92              
      93              ;       C:\ti\ccsv6\tools\compiler\c2000_15.12.3.LTS\bin\opt2000.exe C:\\Users\\a0393005\\AppData\\Local\\Tem
      94              ;       C:\ti\ccsv6\tools\compiler\c2000_15.12.3.LTS\bin\ac2000.exe -@C:\\Users\\a0393005\\AppData\\Local\\Te
      95 00000000               .sect   ".text"
      96                      .clink
      97                      .global _DRV8353_writeSpi
      98              
      99              $C$DW$14        .dwtag  DW_TAG_subprogram
     100                      .dwattr $C$DW$14, DW_AT_name("DRV8353_writeSpi")
     101                      .dwattr $C$DW$14, DW_AT_low_pc(_DRV8353_writeSpi)
     102                      .dwattr $C$DW$14, DW_AT_high_pc(0x00)
     103                      .dwattr $C$DW$14, DW_AT_TI_symbol_name("_DRV8353_writeSpi")
     104                      .dwattr $C$DW$14, DW_AT_external
     105                      .dwattr $C$DW$14, DW_AT_TI_begin_file("C:/ti/motorware_drv8353/motorware_1_01_00_18/sw/drivers/drvic/
     106                      .dwattr $C$DW$14, DW_AT_TI_begin_line(0x459)
     107                      .dwattr $C$DW$14, DW_AT_TI_begin_column(0x06)
     108                      .dwattr $C$DW$14, DW_AT_TI_max_frame_size(-6)
     109                      .dwpsn  file "C:/ti/motorware_drv8353/motorware_1_01_00_18/sw/drivers/drvic/drv8353/src/32b/f28x/f280
TMS320C2000 Assembler PC v15.12.3 Wed Jul 04 16:10:52 2018

Tools Copyright (c) 1996-2015 Texas Instruments Incorporated
C:\Users\a0393005\AppData\Local\Temp\1506410                         PAGE    3

     110              
     111                      .dwfde $C$DW$CIE, _DRV8353_writeSpi
     112              $C$DW$15        .dwtag  DW_TAG_formal_parameter
     113                      .dwattr $C$DW$15, DW_AT_name("handle")
     114                      .dwattr $C$DW$15, DW_AT_TI_symbol_name("_handle")
     115                      .dwattr $C$DW$15, DW_AT_type(*$C$DW$T$85)
     116                      .dwattr $C$DW$15, DW_AT_location[DW_OP_reg12]
     117              
     118              $C$DW$16        .dwtag  DW_TAG_formal_parameter
     119                      .dwattr $C$DW$16, DW_AT_name("regAddr")
     120                      .dwattr $C$DW$16, DW_AT_TI_symbol_name("_regAddr")
     121                      .dwattr $C$DW$16, DW_AT_type(*$C$DW$T$113)
     122                      .dwattr $C$DW$16, DW_AT_location[DW_OP_reg0]
     123              
     124              $C$DW$17        .dwtag  DW_TAG_formal_parameter
     125                      .dwattr $C$DW$17, DW_AT_name("data")
     126                      .dwattr $C$DW$17, DW_AT_TI_symbol_name("_data")
     127                      .dwattr $C$DW$17, DW_AT_type(*$C$DW$T$134)
     128                      .dwattr $C$DW$17, DW_AT_location[DW_OP_reg1]
     129              
     130              
     131              ;***************************************************************
     132              ;* FNAME: _DRV8353_writeSpi             FR SIZE:   4           *
     133              ;*                                                             *
     134              ;* FUNCTION ENVIRONMENT                                        *
     135              ;*                                                             *
     136              ;* FUNCTION PROPERTIES                                         *
     137              ;*                            0 Parameter,  0 Auto,  4 SOE     *
     138              ;***************************************************************
     139              
     140              _DRV8353_writeSpi:
     141              ;* AR2   assigned to _handle
     142              $C$DW$18        .dwtag  DW_TAG_variable
     143                      .dwattr $C$DW$18, DW_AT_name("handle")
     144                      .dwattr $C$DW$18, DW_AT_TI_symbol_name("_handle")
     145                      .dwattr $C$DW$18, DW_AT_type(*$C$DW$T$115)
     146                      .dwattr $C$DW$18, DW_AT_location[DW_OP_reg8]
     147              
     148              ;* AL    assigned to _regAddr
     149              $C$DW$19        .dwtag  DW_TAG_variable
     150                      .dwattr $C$DW$19, DW_AT_name("regAddr")
     151                      .dwattr $C$DW$19, DW_AT_TI_symbol_name("_regAddr")
     152                      .dwattr $C$DW$19, DW_AT_type(*$C$DW$T$113)
     153                      .dwattr $C$DW$19, DW_AT_location[DW_OP_reg0]
     154              
     155              ;* AH    assigned to _data
     156              $C$DW$20        .dwtag  DW_TAG_variable
     157                      .dwattr $C$DW$20, DW_AT_name("data")
     158                      .dwattr $C$DW$20, DW_AT_TI_symbol_name("_data")
     159                      .dwattr $C$DW$20, DW_AT_type(*$C$DW$T$134)
     160                      .dwattr $C$DW$20, DW_AT_location[DW_OP_reg1]
     161              
     162              ;* AR1   assigned to _ctrlWord
     163              $C$DW$21        .dwtag  DW_TAG_variable
     164                      .dwattr $C$DW$21, DW_AT_name("ctrlWord")
TMS320C2000 Assembler PC v15.12.3 Wed Jul 04 16:10:52 2018

Tools Copyright (c) 1996-2015 Texas Instruments Incorporated
C:\Users\a0393005\AppData\Local\Temp\1506410                         PAGE    4

     165                      .dwattr $C$DW$21, DW_AT_TI_symbol_name("_ctrlWord")
     166                      .dwattr $C$DW$21, DW_AT_type(*$C$DW$T$69)
     167                      .dwattr $C$DW$21, DW_AT_location[DW_OP_reg6]
     168              
     169                      .dwcfi  cfa_offset, -2
     170                      .dwcfi  save_reg_to_mem, 26, 0
     171 00000000 B2BD          MOVL      *SP++,XAR1            ; [CPU_] 
     172                      .dwcfi  save_reg_to_mem, 7, 2
     173                      .dwcfi  cfa_offset, -4
     174 00000001 AABD          MOVL      *SP++,XAR2            ; [CPU_] 
     175                      .dwcfi  save_reg_to_mem, 9, 4
     176                      .dwcfi  cfa_offset, -6
     177 00000002 86A4          MOVL      XAR2,XAR4             ; [CPU_] |1114| 
     178                      .dwpsn  file "C:/ti/motorware_drv8353/motorware_1_01_00_18/sw/drivers/drvic/drv8353/src/32b/f28x/f280
     179 00000003 CDA8          AND       AH,AH,#0x07ff         ; [CPU_] |792| 
         00000004 07FF 
     180 00000005 CBA9          OR        AH,AL                 ; [CPU_] |792| 
     181 00000006 59A8          MOVZ      AR1,AH                ; [CPU_] |792| 
     182                      .dwpsn  file "C:/ti/motorware_drv8353/motorware_1_01_00_18/sw/drivers/drvic/drv8353/src/32b/f28x/f280
     183 00000007 8AC2          MOVL      XAR4,*+XAR2[0]        ; [CPU_] |1123| 
     184              $C$DW$22        .dwtag  DW_TAG_TI_branch
     185                      .dwattr $C$DW$22, DW_AT_low_pc(0x00)
     186                      .dwattr $C$DW$22, DW_AT_name("_SPI_resetRxFifo")
     187                      .dwattr $C$DW$22, DW_AT_TI_call
     188              
     189 00000008 7640!         LCR       #_SPI_resetRxFifo     ; [CPU_] |1123| 
         00000009 0000 
     190                      ; call occurs [#_SPI_resetRxFifo] ; [] |1123| 
     191                      .dwpsn  file "C:/ti/motorware_drv8353/motorware_1_01_00_18/sw/drivers/drvic/drv8353/src/32b/f28x/f280
     192 0000000a 8AC2          MOVL      XAR4,*+XAR2[0]        ; [CPU_] |1124| 
     193              $C$DW$23        .dwtag  DW_TAG_TI_branch
     194                      .dwattr $C$DW$23, DW_AT_low_pc(0x00)
     195                      .dwattr $C$DW$23, DW_AT_name("_SPI_enableRxFifo")
     196                      .dwattr $C$DW$23, DW_AT_TI_call
     197              
     198 0000000b 7640!         LCR       #_SPI_enableRxFifo    ; [CPU_] |1124| 
         0000000c 0000 
     199                      ; call occurs [#_SPI_enableRxFifo] ; [] |1124| 
     200                      .dwpsn  file "C:/ti/motorware_drv8353/motorware_1_01_00_18/sw/drivers/drvic/drv8353/src/32b/f28x/f280
     201 0000000d 9A07          MOVB      AL,#7                 ; [CPU_] |1126| 
     202 0000000e 8AD2          MOVL      XAR4,*+XAR2[2]        ; [CPU_] |1126| 
     203              $C$DW$24        .dwtag  DW_TAG_TI_branch
     204                      .dwattr $C$DW$24, DW_AT_low_pc(0x00)
     205                      .dwattr $C$DW$24, DW_AT_name("_GPIO_setLow")
     206                      .dwattr $C$DW$24, DW_AT_TI_call
     207              
     208 0000000f 7640!         LCR       #_GPIO_setLow         ; [CPU_] |1126| 
         00000010 0000 
     209                      ; call occurs [#_GPIO_setLow] ; [] |1126| 
     210 00000011 BE05          MOVB      XAR6,#5               ; [CPU_] 
     211 00000012       $C$L1:    
     212 00000012 7700   NOP
     213                      .dwpsn  file "C:/ti/motorware_drv8353/motorware_1_01_00_18/sw/drivers/drvic/drv8353/src/32b/f28x/f280
     214 00000013 000E          BANZ      $C$L1,AR6--           ; [CPU_] |1129| 
         00000014 FFFF 
TMS320C2000 Assembler PC v15.12.3 Wed Jul 04 16:10:52 2018

Tools Copyright (c) 1996-2015 Texas Instruments Incorporated
C:\Users\a0393005\AppData\Local\Temp\1506410                         PAGE    5

     215                      ; branchcc occurs ; [] |1129| 
     216                      .dwpsn  file "C:/ti/motorware_drv8353/motorware_1_01_00_18/sw/drivers/spi/src/32b/f28x/f2802x/spi.h",
     217 00000015 0208          MOVB      ACC,#8                ; [CPU_] |642| 
     218 00000016 07C2          ADDL      ACC,*+XAR2[0]         ; [CPU_] |642| 
     219 00000017 8AA9          MOVL      XAR4,ACC              ; [CPU_] |642| 
     220 00000018 BEEF          MOVB      XAR6,#239             ; [CPU_] 
     221 00000019 79C4          MOV       *+XAR4[0],AR1         ; [CPU_] |642| 
     222 0000001a       $C$L2:    
     223 0000001a 7700   NOP
     224                      .dwpsn  file "C:/ti/motorware_drv8353/motorware_1_01_00_18/sw/drivers/drvic/drv8353/src/32b/f28x/f280
     225 0000001b 000E          BANZ      $C$L2,AR6--           ; [CPU_] |1136| 
         0000001c FFFF 
     226                      ; branchcc occurs ; [] |1136| 
     227                      .dwpsn  file "C:/ti/motorware_drv8353/motorware_1_01_00_18/sw/drivers/drvic/drv8353/src/32b/f28x/f280
     228 0000001d 8AD2          MOVL      XAR4,*+XAR2[2]        ; [CPU_] |1139| 
     229 0000001e 9A07          MOVB      AL,#7                 ; [CPU_] |1139| 
     230 0000001f FF69          SPM       #0                    ; [CPU_] 
     231              $C$DW$25        .dwtag  DW_TAG_TI_branch
     232                      .dwattr $C$DW$25, DW_AT_low_pc(0x00)
     233                      .dwattr $C$DW$25, DW_AT_name("_GPIO_setHigh")
     234                      .dwattr $C$DW$25, DW_AT_TI_call
     235              
     236 00000020 7640!         LCR       #_GPIO_setHigh        ; [CPU_] |1139| 
         00000021 0000 
     237                      ; call occurs [#_GPIO_setHigh] ; [] |1139| 
     238 00000022 86BE          MOVL      XAR2,*--SP            ; [CPU_] 
     239                      .dwcfi  cfa_offset, -4
     240                      .dwcfi  restore_reg, 9
     241 00000023 8BBE          MOVL      XAR1,*--SP            ; [CPU_] 
     242                      .dwcfi  cfa_offset, -2
     243                      .dwcfi  restore_reg, 7
     244              $C$DW$26        .dwtag  DW_TAG_TI_branch
     245                      .dwattr $C$DW$26, DW_AT_low_pc(0x00)
     246                      .dwattr $C$DW$26, DW_AT_TI_return
     247              
     248 00000024 0006          LRETR     ; [CPU_] 
     249                      ; return occurs ; [] 
     250                      .dwattr $C$DW$14, DW_AT_TI_end_file("C:/ti/motorware_drv8353/motorware_1_01_00_18/sw/drivers/drvic/dr
     251                      .dwattr $C$DW$14, DW_AT_TI_end_line(0x476)
     252                      .dwattr $C$DW$14, DW_AT_TI_end_column(0x01)
     253                      .dwendentry
     254                      .dwendtag $C$DW$14
     255              
     256 00000025               .sect   ".text"
     257                      .clink
     258                      .global _DRV8353_writeData
     259              
     260              $C$DW$27        .dwtag  DW_TAG_subprogram
     261                      .dwattr $C$DW$27, DW_AT_name("DRV8353_writeData")
     262                      .dwattr $C$DW$27, DW_AT_low_pc(_DRV8353_writeData)
     263                      .dwattr $C$DW$27, DW_AT_high_pc(0x00)
     264                      .dwattr $C$DW$27, DW_AT_TI_symbol_name("_DRV8353_writeData")
     265                      .dwattr $C$DW$27, DW_AT_external
     266                      .dwattr $C$DW$27, DW_AT_TI_begin_file("C:/ti/motorware_drv8353/motorware_1_01_00_18/sw/drivers/drvic/
     267                      .dwattr $C$DW$27, DW_AT_TI_begin_line(0x479)
TMS320C2000 Assembler PC v15.12.3 Wed Jul 04 16:10:52 2018

Tools Copyright (c) 1996-2015 Texas Instruments Incorporated
C:\Users\a0393005\AppData\Local\Temp\1506410                         PAGE    6

     268                      .dwattr $C$DW$27, DW_AT_TI_begin_column(0x06)
     269                      .dwattr $C$DW$27, DW_AT_TI_max_frame_size(-8)
     270                      .dwpsn  file "C:/ti/motorware_drv8353/motorware_1_01_00_18/sw/drivers/drvic/drv8353/src/32b/f28x/f280
     271              
     272                      .dwfde $C$DW$CIE, _DRV8353_writeData
     273              $C$DW$28        .dwtag  DW_TAG_formal_parameter
     274                      .dwattr $C$DW$28, DW_AT_name("handle")
     275                      .dwattr $C$DW$28, DW_AT_TI_symbol_name("_handle")
     276                      .dwattr $C$DW$28, DW_AT_type(*$C$DW$T$85)
     277                      .dwattr $C$DW$28, DW_AT_location[DW_OP_reg12]
     278              
     279              $C$DW$29        .dwtag  DW_TAG_formal_parameter
     280                      .dwattr $C$DW$29, DW_AT_name("Spi_8353_Vars")
     281                      .dwattr $C$DW$29, DW_AT_TI_symbol_name("_Spi_8353_Vars")
     282                      .dwattr $C$DW$29, DW_AT_type(*$C$DW$T$122)
     283                      .dwattr $C$DW$29, DW_AT_location[DW_OP_reg14]
     284              
     285              
     286              ;***************************************************************
     287              ;* FNAME: _DRV8353_writeData            FR SIZE:   6           *
     288              ;*                                                             *
     289              ;* FUNCTION ENVIRONMENT                                        *
     290              ;*                                                             *
     291              ;* FUNCTION PROPERTIES                                         *
     292              ;*                            0 Parameter,  0 Auto,  6 SOE     *
     293              ;***************************************************************
     294              
     295              _DRV8353_writeData:
     296              ;* AR3   assigned to _handle
     297              $C$DW$30        .dwtag  DW_TAG_variable
     298                      .dwattr $C$DW$30, DW_AT_name("handle")
     299                      .dwattr $C$DW$30, DW_AT_TI_symbol_name("_handle")
     300                      .dwattr $C$DW$30, DW_AT_type(*$C$DW$T$115)
     301                      .dwattr $C$DW$30, DW_AT_location[DW_OP_reg10]
     302              
     303              ;* AR2   assigned to _Spi_8353_Vars
     304              $C$DW$31        .dwtag  DW_TAG_variable
     305                      .dwattr $C$DW$31, DW_AT_name("Spi_8353_Vars")
     306                      .dwattr $C$DW$31, DW_AT_TI_symbol_name("_Spi_8353_Vars")
     307                      .dwattr $C$DW$31, DW_AT_type(*$C$DW$T$123)
     308                      .dwattr $C$DW$31, DW_AT_location[DW_OP_reg8]
     309              
     310              ;* AH    assigned to _drvDataNew
     311              $C$DW$32        .dwtag  DW_TAG_variable
     312                      .dwattr $C$DW$32, DW_AT_name("drvDataNew")
     313                      .dwattr $C$DW$32, DW_AT_TI_symbol_name("_drvDataNew")
     314                      .dwattr $C$DW$32, DW_AT_type(*$C$DW$T$69)
     315                      .dwattr $C$DW$32, DW_AT_location[DW_OP_reg1]
     316              
     317              ;* AH    assigned to _drvDataNew
     318              $C$DW$33        .dwtag  DW_TAG_variable
     319                      .dwattr $C$DW$33, DW_AT_name("drvDataNew")
     320                      .dwattr $C$DW$33, DW_AT_TI_symbol_name("_drvDataNew")
     321                      .dwattr $C$DW$33, DW_AT_type(*$C$DW$T$69)
     322                      .dwattr $C$DW$33, DW_AT_location[DW_OP_reg1]
TMS320C2000 Assembler PC v15.12.3 Wed Jul 04 16:10:52 2018

Tools Copyright (c) 1996-2015 Texas Instruments Incorporated
C:\Users\a0393005\AppData\Local\Temp\1506410                         PAGE    7

     323              
     324              ;* AH    assigned to _drvDataNew
     325              $C$DW$34        .dwtag  DW_TAG_variable
     326                      .dwattr $C$DW$34, DW_AT_name("drvDataNew")
     327                      .dwattr $C$DW$34, DW_AT_TI_symbol_name("_drvDataNew")
     328                      .dwattr $C$DW$34, DW_AT_type(*$C$DW$T$69)
     329                      .dwattr $C$DW$34, DW_AT_location[DW_OP_reg1]
     330              
     331                      .dwcfi  cfa_offset, -2
     332                      .dwcfi  save_reg_to_mem, 26, 0
     333 00000025 B2BD          MOVL      *SP++,XAR1            ; [CPU_] 
     334                      .dwcfi  save_reg_to_mem, 7, 2
     335                      .dwcfi  cfa_offset, -4
     336 00000026 AABD          MOVL      *SP++,XAR2            ; [CPU_] 
     337                      .dwcfi  save_reg_to_mem, 9, 4
     338                      .dwcfi  cfa_offset, -6
     339 00000027 86A5          MOVL      XAR2,XAR5             ; [CPU_] |1146| 
     340                      .dwpsn  file "C:/ti/motorware_drv8353/motorware_1_01_00_18/sw/drivers/drvic/drv8353/src/32b/f28x/f280
     341 00000028 D040          MOVB      XAR0,#64              ; [CPU_] |1150| 
     342 00000029 A2BD          MOVL      *SP++,XAR3            ; [CPU_] 
     343                      .dwcfi  save_reg_to_mem, 11, 6
     344                      .dwcfi  cfa_offset, -8
     345                      .dwpsn  file "C:/ti/motorware_drv8353/motorware_1_01_00_18/sw/drivers/drvic/drv8353/src/32b/f28x/f280
     346 0000002a 82A4          MOVL      XAR3,XAR4             ; [CPU_] |1146| 
     347                      .dwpsn  file "C:/ti/motorware_drv8353/motorware_1_01_00_18/sw/drivers/drvic/drv8353/src/32b/f28x/f280
     348 0000002b 9292          MOV       AL,*+XAR2[AR0]        ; [CPU_] |1150| 
     349 0000002c FFE1          B         $C$L3,EQ              ; [CPU_] |1150| 
         0000002d 00D2 
     350                      ; branchcc occurs ; [] |1150| 
     351                      .dwpsn  file "C:/ti/motorware_drv8353/motorware_1_01_00_18/sw/drivers/drvic/drv8353/src/32b/f28x/f280
     352 0000002e D117          MOVB      XAR1,#23              ; [CPU_] |1154| 
     353 0000002f D016          MOVB      XAR0,#22              ; [CPU_] |1154| 
     354 00000030 5603          MOV       ACC,*+XAR2[AR1] << #1 ; [CPU_] |1154| 
         00000031 019A 
     355 00000032 CA92          OR        AL,*+XAR2[AR0]        ; [CPU_] |1154| 
     356 00000033 80A9          MOVZ      AR7,AL                ; [CPU_] |1154| 
     357 00000034 D018          MOVB      XAR0,#24              ; [CPU_] |1154| 
     358 00000035 5603          MOV       ACC,*+XAR2[AR0] << #2 ; [CPU_] |1154| 
         00000036 0292 
     359 00000037 93A9          MOV       AH,AL                 ; [CPU_] |1154| 
     360 00000038 CBA7          OR        AH,AR7                ; [CPU_] |1154| 
     361 00000039 88A8          MOVZ      AR6,AH                ; [CPU_] |1154| 
     362 0000003a D019          MOVB      XAR0,#25              ; [CPU_] |1154| 
     363 0000003b 5603          MOV       ACC,*+XAR2[AR0] << #3 ; [CPU_] |1154| 
         0000003c 0392 
     364 0000003d 93A9          MOV       AH,AL                 ; [CPU_] |1154| 
     365 0000003e CBA6          OR        AH,AR6                ; [CPU_] |1154| 
     366 0000003f 80A8          MOVZ      AR7,AH                ; [CPU_] |1154| 
     367 00000040 D01A          MOVB      XAR0,#26              ; [CPU_] |1154| 
     368 00000041 5603          MOV       ACC,*+XAR2[AR0] << #4 ; [CPU_] |1154| 
         00000042 0492 
     369 00000043 D01B          MOVB      XAR0,#27              ; [CPU_] |1154| 
     370 00000044 CAA7          OR        AL,AR7                ; [CPU_] |1154| 
     371 00000045 CA92          OR        AL,*+XAR2[AR0]        ; [CPU_] |1154| 
     372 00000046 88A9          MOVZ      AR6,AL                ; [CPU_] |1154| 
TMS320C2000 Assembler PC v15.12.3 Wed Jul 04 16:10:52 2018

Tools Copyright (c) 1996-2015 Texas Instruments Incorporated
C:\Users\a0393005\AppData\Local\Temp\1506410                         PAGE    8

     373 00000047 D01C          MOVB      XAR0,#28              ; [CPU_] |1154| 
     374 00000048 5603          MOV       ACC,*+XAR2[AR0] << #7 ; [CPU_] |1154| 
         00000049 0792 
     375 0000004a 93A9          MOV       AH,AL                 ; [CPU_] |1154| 
     376 0000004b CBA6          OR        AH,AR6                ; [CPU_] |1154| 
     377 0000004c 80A8          MOVZ      AR7,AH                ; [CPU_] |1154| 
     378 0000004d D01D          MOVB      XAR0,#29              ; [CPU_] |1154| 
     379 0000004e 5603          MOV       ACC,*+XAR2[AR0] << #8 ; [CPU_] |1154| 
         0000004f 0892 
     380 00000050 CAA7          OR        AL,AR7                ; [CPU_] |1154| 
     381 00000051 88A9          MOVZ      AR6,AL                ; [CPU_] |1154| 
     382 00000052 D01E          MOVB      XAR0,#30              ; [CPU_] |1154| 
     383 00000053 5603          MOV       ACC,*+XAR2[AR0] << #9 ; [CPU_] |1154| 
         00000054 0992 
     384 00000055 93A9          MOV       AH,AL                 ; [CPU_] |1154| 
     385 00000056 CBA6          OR        AH,AR6                ; [CPU_] |1154| 
     386 00000057 80A8          MOVZ      AR7,AH                ; [CPU_] |1154| 
     387 00000058 D01F          MOVB      XAR0,#31              ; [CPU_] |1154| 
     388 00000059 5603          MOV       ACC,*+XAR2[AR0] << #10 ; [CPU_] |1154| 
         0000005a 0A92 
     389 0000005b CAA7          OR        AL,AR7                ; [CPU_] |1154| 
     390 0000005c 93A9          MOV       AH,AL                 ; [CPU_] |1154| 
     391                      .dwpsn  file "C:/ti/motorware_drv8353/motorware_1_01_00_18/sw/drivers/drvic/drv8353/src/32b/f28x/f280
     392 0000005d 28A9          MOV       AL,#4096              ; [CPU_] |1164| 
         0000005e 1000 
     393              $C$DW$35        .dwtag  DW_TAG_TI_branch
     394                      .dwattr $C$DW$35, DW_AT_low_pc(0x00)
     395                      .dwattr $C$DW$35, DW_AT_name("_DRV8353_writeSpi")
     396                      .dwattr $C$DW$35, DW_AT_TI_call
     397              
     398 0000005f 7640'         LCR       #_DRV8353_writeSpi    ; [CPU_] |1164| 
         00000060 0000 
     399                      ; call occurs [#_DRV8353_writeSpi] ; [] |1164| 
     400                      .dwpsn  file "C:/ti/motorware_drv8353/motorware_1_01_00_18/sw/drivers/drvic/drv8353/src/32b/f28x/f280
     401 00000061 D121          MOVB      XAR1,#33              ; [CPU_] |1171| 
     402 00000062 D020          MOVB      XAR0,#32              ; [CPU_] |1171| 
     403 00000063 939A          MOV       AH,*+XAR2[AR1]        ; [CPU_] |1171| 
     404 00000064 28A9          MOV       AL,#6144              ; [CPU_] |1171| 
         00000065 1800 
     405 00000066 8AA3          MOVL      XAR4,XAR3             ; [CPU_] |1171| 
     406 00000067 CB92          OR        AH,*+XAR2[AR0]        ; [CPU_] |1171| 
     407 00000068 D022          MOVB      XAR0,#34              ; [CPU_] |1171| 
     408 00000069 CB92          OR        AH,*+XAR2[AR0]        ; [CPU_] |1171| 
     409              $C$DW$36        .dwtag  DW_TAG_TI_branch
     410                      .dwattr $C$DW$36, DW_AT_low_pc(0x00)
     411                      .dwattr $C$DW$36, DW_AT_name("_DRV8353_writeSpi")
     412                      .dwattr $C$DW$36, DW_AT_TI_call
     413              
     414 0000006a 7640'         LCR       #_DRV8353_writeSpi    ; [CPU_] |1171| 
         0000006b 0000 
     415                      ; call occurs [#_DRV8353_writeSpi] ; [] |1171| 
     416                      .dwpsn  file "C:/ti/motorware_drv8353/motorware_1_01_00_18/sw/drivers/drvic/drv8353/src/32b/f28x/f280
     417 0000006c D124          MOVB      XAR1,#36              ; [CPU_] |1179| 
     418 0000006d D023          MOVB      XAR0,#35              ; [CPU_] |1179| 
     419 0000006e 929A          MOV       AL,*+XAR2[AR1]        ; [CPU_] |1179| 
TMS320C2000 Assembler PC v15.12.3 Wed Jul 04 16:10:52 2018

Tools Copyright (c) 1996-2015 Texas Instruments Incorporated
C:\Users\a0393005\AppData\Local\Temp\1506410                         PAGE    9

     420 0000006f CA92          OR        AL,*+XAR2[AR0]        ; [CPU_] |1179| 
     421 00000070 D025          MOVB      XAR0,#37              ; [CPU_] |1179| 
     422 00000071 CA92          OR        AL,*+XAR2[AR0]        ; [CPU_] |1179| 
     423 00000072 88A9          MOVZ      AR6,AL                ; [CPU_] |1179| 
     424 00000073 D026          MOVB      XAR0,#38              ; [CPU_] |1179| 
     425 00000074 8AA3          MOVL      XAR4,XAR3             ; [CPU_] |1179| 
     426 00000075 5603          MOV       ACC,*+XAR2[AR0] << #10 ; [CPU_] |1179| 
         00000076 0A92 
     427 00000077 CAA6          OR        AL,AR6                ; [CPU_] |1179| 
     428 00000078 93A9          MOV       AH,AL                 ; [CPU_] |1179| 
     429 00000079 28A9          MOV       AL,#8192              ; [CPU_] |1179| 
         0000007a 2000 
     430              $C$DW$37        .dwtag  DW_TAG_TI_branch
     431                      .dwattr $C$DW$37, DW_AT_low_pc(0x00)
     432                      .dwattr $C$DW$37, DW_AT_name("_DRV8353_writeSpi")
     433                      .dwattr $C$DW$37, DW_AT_TI_call
     434              
     435 0000007b 7640'         LCR       #_DRV8353_writeSpi    ; [CPU_] |1179| 
         0000007c 0000 
     436                      ; call occurs [#_DRV8353_writeSpi] ; [] |1179| 
     437                      .dwpsn  file "C:/ti/motorware_drv8353/motorware_1_01_00_18/sw/drivers/drvic/drv8353/src/32b/f28x/f280
     438 0000007d D128          MOVB      XAR1,#40              ; [CPU_] |1188| 
     439 0000007e D027          MOVB      XAR0,#39              ; [CPU_] |1188| 
     440 0000007f 929A          MOV       AL,*+XAR2[AR1]        ; [CPU_] |1188| 
     441 00000080 CA92          OR        AL,*+XAR2[AR0]        ; [CPU_] |1188| 
     442 00000081 D029          MOVB      XAR0,#41              ; [CPU_] |1188| 
     443 00000082 CA92          OR        AL,*+XAR2[AR0]        ; [CPU_] |1188| 
     444 00000083 D02A          MOVB      XAR0,#42              ; [CPU_] |1188| 
     445 00000084 CA92          OR        AL,*+XAR2[AR0]        ; [CPU_] |1188| 
     446 00000085 88A9          MOVZ      AR6,AL                ; [CPU_] |1188| 
     447 00000086 D02B          MOVB      XAR0,#43              ; [CPU_] |1188| 
     448 00000087 8AA3          MOVL      XAR4,XAR3             ; [CPU_] |1188| 
     449 00000088 5603          MOV       ACC,*+XAR2[AR0] << #10 ; [CPU_] |1188| 
         00000089 0A92 
     450 0000008a CAA6          OR        AL,AR6                ; [CPU_] |1188| 
     451 0000008b 93A9          MOV       AH,AL                 ; [CPU_] |1188| 
     452 0000008c 28A9          MOV       AL,#10240             ; [CPU_] |1188| 
         0000008d 2800 
     453              $C$DW$38        .dwtag  DW_TAG_TI_branch
     454                      .dwattr $C$DW$38, DW_AT_low_pc(0x00)
     455                      .dwattr $C$DW$38, DW_AT_name("_DRV8353_writeSpi")
     456                      .dwattr $C$DW$38, DW_AT_TI_call
     457              
     458 0000008e 7640'         LCR       #_DRV8353_writeSpi    ; [CPU_] |1188| 
         0000008f 0000 
     459                      ; call occurs [#_DRV8353_writeSpi] ; [] |1188| 
     460                      .dwpsn  file "C:/ti/motorware_drv8353/motorware_1_01_00_18/sw/drivers/drvic/drv8353/src/32b/f28x/f280
     461 00000090 D12D          MOVB      XAR1,#45              ; [CPU_] |1192| 
     462 00000091 D02C          MOVB      XAR0,#44              ; [CPU_] |1192| 
     463 00000092 5603          MOV       ACC,*+XAR2[AR1] << #2 ; [CPU_] |1192| 
         00000093 029A 
     464 00000094 CA92          OR        AL,*+XAR2[AR0]        ; [CPU_] |1192| 
     465 00000095 80A9          MOVZ      AR7,AL                ; [CPU_] |1192| 
     466 00000096 D02E          MOVB      XAR0,#46              ; [CPU_] |1192| 
     467 00000097 5603          MOV       ACC,*+XAR2[AR0] << #3 ; [CPU_] |1192| 
TMS320C2000 Assembler PC v15.12.3 Wed Jul 04 16:10:52 2018

Tools Copyright (c) 1996-2015 Texas Instruments Incorporated
C:\Users\a0393005\AppData\Local\Temp\1506410                         PAGE   10

         00000098 0392 
     468 00000099 93A9          MOV       AH,AL                 ; [CPU_] |1192| 
     469 0000009a CBA7          OR        AH,AR7                ; [CPU_] |1192| 
     470 0000009b 88A8          MOVZ      AR6,AH                ; [CPU_] |1192| 
     471 0000009c D02F          MOVB      XAR0,#47              ; [CPU_] |1192| 
     472 0000009d 5603          MOV       ACC,*+XAR2[AR0] << #4 ; [CPU_] |1192| 
         0000009e 0492 
     473 0000009f 93A9          MOV       AH,AL                 ; [CPU_] |1192| 
     474 000000a0 CBA6          OR        AH,AR6                ; [CPU_] |1192| 
     475 000000a1 80A8          MOVZ      AR7,AH                ; [CPU_] |1192| 
     476 000000a2 D030          MOVB      XAR0,#48              ; [CPU_] |1192| 
     477 000000a3 5603          MOV       ACC,*+XAR2[AR0] << #5 ; [CPU_] |1192| 
         000000a4 0592 
     478 000000a5 D031          MOVB      XAR0,#49              ; [CPU_] |1192| 
     479 000000a6 CAA7          OR        AL,AR7                ; [CPU_] |1192| 
     480 000000a7 CA92          OR        AL,*+XAR2[AR0]        ; [CPU_] |1192| 
     481 000000a8 88A9          MOVZ      AR6,AL                ; [CPU_] |1192| 
     482 000000a9 D032          MOVB      XAR0,#50              ; [CPU_] |1192| 
     483 000000aa 5603          MOV       ACC,*+XAR2[AR0] << #8 ; [CPU_] |1192| 
         000000ab 0892 
     484 000000ac 93A9          MOV       AH,AL                 ; [CPU_] |1192| 
     485 000000ad CBA6          OR        AH,AR6                ; [CPU_] |1192| 
     486 000000ae 80A8          MOVZ      AR7,AH                ; [CPU_] |1192| 
     487 000000af D033          MOVB      XAR0,#51              ; [CPU_] |1192| 
     488 000000b0 5603          MOV       ACC,*+XAR2[AR0] << #9 ; [CPU_] |1192| 
         000000b1 0992 
     489 000000b2 93A9          MOV       AH,AL                 ; [CPU_] |1192| 
     490 000000b3 CBA7          OR        AH,AR7                ; [CPU_] |1192| 
     491 000000b4 88A8          MOVZ      AR6,AH                ; [CPU_] |1192| 
     492 000000b5 D034          MOVB      XAR0,#52              ; [CPU_] |1192| 
     493                      .dwpsn  file "C:/ti/motorware_drv8353/motorware_1_01_00_18/sw/drivers/drvic/drv8353/src/32b/f28x/f280
     494 000000b6 8AA3          MOVL      XAR4,XAR3             ; [CPU_] |1201| 
     495                      .dwpsn  file "C:/ti/motorware_drv8353/motorware_1_01_00_18/sw/drivers/drvic/drv8353/src/32b/f28x/f280
     496 000000b7 5603          MOV       ACC,*+XAR2[AR0] << #10 ; [CPU_] |1192| 
         000000b8 0A92 
     497 000000b9 CAA6          OR        AL,AR6                ; [CPU_] |1192| 
     498 000000ba 93A9          MOV       AH,AL                 ; [CPU_] |1192| 
     499                      .dwpsn  file "C:/ti/motorware_drv8353/motorware_1_01_00_18/sw/drivers/drvic/drv8353/src/32b/f28x/f280
     500 000000bb 28A9          MOV       AL,#12288             ; [CPU_] |1201| 
         000000bc 3000 
     501              $C$DW$39        .dwtag  DW_TAG_TI_branch
     502                      .dwattr $C$DW$39, DW_AT_low_pc(0x00)
     503                      .dwattr $C$DW$39, DW_AT_name("_DRV8353_writeSpi")
     504                      .dwattr $C$DW$39, DW_AT_TI_call
     505              
     506 000000bd 7640'         LCR       #_DRV8353_writeSpi    ; [CPU_] |1201| 
         000000be 0000 
     507                      ; call occurs [#_DRV8353_writeSpi] ; [] |1201| 
     508                      .dwpsn  file "C:/ti/motorware_drv8353/motorware_1_01_00_18/sw/drivers/drvic/drv8353/src/32b/f28x/f280
     509 000000bf D136          MOVB      XAR1,#54              ; [CPU_] |1205| 
     510 000000c0 D035          MOVB      XAR0,#53              ; [CPU_] |1205| 
     511 000000c1 5603          MOV       ACC,*+XAR2[AR1] << #1 ; [CPU_] |1205| 
         000000c2 019A 
     512 000000c3 CA92          OR        AL,*+XAR2[AR0]        ; [CPU_] |1205| 
     513 000000c4 88A9          MOVZ      AR6,AL                ; [CPU_] |1205| 
TMS320C2000 Assembler PC v15.12.3 Wed Jul 04 16:10:52 2018

Tools Copyright (c) 1996-2015 Texas Instruments Incorporated
C:\Users\a0393005\AppData\Local\Temp\1506410                         PAGE   11

     514 000000c5 D037          MOVB      XAR0,#55              ; [CPU_] |1205| 
     515 000000c6 5603          MOV       ACC,*+XAR2[AR0] << #2 ; [CPU_] |1205| 
         000000c7 0292 
     516 000000c8 93A9          MOV       AH,AL                 ; [CPU_] |1205| 
     517 000000c9 CBA6          OR        AH,AR6                ; [CPU_] |1205| 
     518 000000ca 80A8          MOVZ      AR7,AH                ; [CPU_] |1205| 
     519 000000cb D038          MOVB      XAR0,#56              ; [CPU_] |1205| 
     520 000000cc 5603          MOV       ACC,*+XAR2[AR0] << #3 ; [CPU_] |1205| 
         000000cd 0392 
     521 000000ce 93A9          MOV       AH,AL                 ; [CPU_] |1205| 
     522 000000cf CBA7          OR        AH,AR7                ; [CPU_] |1205| 
     523 000000d0 88A8          MOVZ      AR6,AH                ; [CPU_] |1205| 
     524 000000d1 D039          MOVB      XAR0,#57              ; [CPU_] |1205| 
     525 000000d2 5603          MOV       ACC,*+XAR2[AR0] << #4 ; [CPU_] |1205| 
         000000d3 0492 
     526 000000d4 CAA6          OR        AL,AR6                ; [CPU_] |1205| 
     527 000000d5 80A9          MOVZ      AR7,AL                ; [CPU_] |1205| 
     528 000000d6 D03A          MOVB      XAR0,#58              ; [CPU_] |1205| 
     529 000000d7 5603          MOV       ACC,*+XAR2[AR0] << #5 ; [CPU_] |1205| 
         000000d8 0592 
     530 000000d9 93A9          MOV       AH,AL                 ; [CPU_] |1205| 
     531 000000da CBA7          OR        AH,AR7                ; [CPU_] |1205| 
     532 000000db 88A8          MOVZ      AR6,AH                ; [CPU_] |1205| 
     533 000000dc D03B          MOVB      XAR0,#59              ; [CPU_] |1205| 
     534 000000dd 5603          MOV       ACC,*+XAR2[AR0] << #6 ; [CPU_] |1205| 
         000000de 0692 
     535 000000df CAA6          OR        AL,AR6                ; [CPU_] |1205| 
     536 000000e0 80A9          MOVZ      AR7,AL                ; [CPU_] |1205| 
     537 000000e1 D03C          MOVB      XAR0,#60              ; [CPU_] |1205| 
     538 000000e2 5603          MOV       ACC,*+XAR2[AR0] << #7 ; [CPU_] |1205| 
         000000e3 0792 
     539 000000e4 93A9          MOV       AH,AL                 ; [CPU_] |1205| 
     540 000000e5 CBA7          OR        AH,AR7                ; [CPU_] |1205| 
     541 000000e6 88A8          MOVZ      AR6,AH                ; [CPU_] |1205| 
     542 000000e7 D03D          MOVB      XAR0,#61              ; [CPU_] |1205| 
     543 000000e8 5603          MOV       ACC,*+XAR2[AR0] << #8 ; [CPU_] |1205| 
         000000e9 0892 
     544 000000ea CAA6          OR        AL,AR6                ; [CPU_] |1205| 
     545 000000eb 80A9          MOVZ      AR7,AL                ; [CPU_] |1205| 
     546 000000ec D03E          MOVB      XAR0,#62              ; [CPU_] |1205| 
     547 000000ed 5603          MOV       ACC,*+XAR2[AR0] << #9 ; [CPU_] |1205| 
         000000ee 0992 
     548 000000ef 93A9          MOV       AH,AL                 ; [CPU_] |1205| 
     549 000000f0 CBA7          OR        AH,AR7                ; [CPU_] |1205| 
     550 000000f1 88A8          MOVZ      AR6,AH                ; [CPU_] |1205| 
     551 000000f2 D03F          MOVB      XAR0,#63              ; [CPU_] |1205| 
     552                      .dwpsn  file "C:/ti/motorware_drv8353/motorware_1_01_00_18/sw/drivers/drvic/drv8353/src/32b/f28x/f280
     553 000000f3 8AA3          MOVL      XAR4,XAR3             ; [CPU_] |1216| 
     554                      .dwpsn  file "C:/ti/motorware_drv8353/motorware_1_01_00_18/sw/drivers/drvic/drv8353/src/32b/f28x/f280
     555 000000f4 5603          MOV       ACC,*+XAR2[AR0] << #10 ; [CPU_] |1205| 
         000000f5 0A92 
     556 000000f6 CAA6          OR        AL,AR6                ; [CPU_] |1205| 
     557 000000f7 93A9          MOV       AH,AL                 ; [CPU_] |1205| 
     558                      .dwpsn  file "C:/ti/motorware_drv8353/motorware_1_01_00_18/sw/drivers/drvic/drv8353/src/32b/f28x/f280
     559 000000f8 28A9          MOV       AL,#14336             ; [CPU_] |1216| 
TMS320C2000 Assembler PC v15.12.3 Wed Jul 04 16:10:52 2018

Tools Copyright (c) 1996-2015 Texas Instruments Incorporated
C:\Users\a0393005\AppData\Local\Temp\1506410                         PAGE   12

         000000f9 3800 
     560              $C$DW$40        .dwtag  DW_TAG_TI_branch
     561                      .dwattr $C$DW$40, DW_AT_low_pc(0x00)
     562                      .dwattr $C$DW$40, DW_AT_name("_DRV8353_writeSpi")
     563                      .dwattr $C$DW$40, DW_AT_TI_call
     564              
     565 000000fa 7640'         LCR       #_DRV8353_writeSpi    ; [CPU_] |1216| 
         000000fb 0000 
     566                      ; call occurs [#_DRV8353_writeSpi] ; [] |1216| 
     567                      .dwpsn  file "C:/ti/motorware_drv8353/motorware_1_01_00_18/sw/drivers/drvic/drv8353/src/32b/f28x/f280
     568 000000fc D040          MOVB      XAR0,#64              ; [CPU_] |1218| 
     569 000000fd 2B92          MOV       *+XAR2[AR0],#0        ; [CPU_] |1218| 
     570 000000fe       $C$L3:    
     571                      .dwpsn  file "C:/ti/motorware_drv8353/motorware_1_01_00_18/sw/drivers/drvic/drv8353/src/32b/f28x/f280
     572 000000fe D046          MOVB      XAR0,#70              ; [CPU_] |1222| 
     573 000000ff 9292          MOV       AL,*+XAR2[AR0]        ; [CPU_] |1222| 
     574 00000100 610B          B         $C$L4,EQ              ; [CPU_] |1222| 
     575                      ; branchcc occurs ; [] |1222| 
     576                      .dwpsn  file "C:/ti/motorware_drv8353/motorware_1_01_00_18/sw/drivers/drvic/drv8353/src/32b/f28x/f280
     577 00000101 D042          MOVB      XAR0,#66              ; [CPU_] |1227| 
     578 00000102 5603          MOV       ACC,*+XAR2[AR0] << #11 ; [CPU_] |1227| 
         00000103 0B92 
     579 00000104 8AA3          MOVL      XAR4,XAR3             ; [CPU_] |1227| 
     580 00000105 D044          MOVB      XAR0,#68              ; [CPU_] |1227| 
     581 00000106 9392          MOV       AH,*+XAR2[AR0]        ; [CPU_] |1227| 
     582              $C$DW$41        .dwtag  DW_TAG_TI_branch
     583                      .dwattr $C$DW$41, DW_AT_low_pc(0x00)
     584                      .dwattr $C$DW$41, DW_AT_name("_DRV8353_writeSpi")
     585                      .dwattr $C$DW$41, DW_AT_TI_call
     586              
     587 00000107 7640'         LCR       #_DRV8353_writeSpi    ; [CPU_] |1227| 
         00000108 0000 
     588                      ; call occurs [#_DRV8353_writeSpi] ; [] |1227| 
     589                      .dwpsn  file "C:/ti/motorware_drv8353/motorware_1_01_00_18/sw/drivers/drvic/drv8353/src/32b/f28x/f280
     590 00000109 D046          MOVB      XAR0,#70              ; [CPU_] |1229| 
     591 0000010a 2B92          MOV       *+XAR2[AR0],#0        ; [CPU_] |1229| 
     592 0000010b       $C$L4:    
     593 0000010b 82BE          MOVL      XAR3,*--SP            ; [CPU_] 
     594                      .dwcfi  cfa_offset, -6
     595                      .dwcfi  restore_reg, 11
     596 0000010c 86BE          MOVL      XAR2,*--SP            ; [CPU_] 
     597                      .dwcfi  cfa_offset, -4
     598                      .dwcfi  restore_reg, 9
     599 0000010d 8BBE          MOVL      XAR1,*--SP            ; [CPU_] 
     600                      .dwcfi  cfa_offset, -2
     601                      .dwcfi  restore_reg, 7
     602              $C$DW$42        .dwtag  DW_TAG_TI_branch
     603                      .dwattr $C$DW$42, DW_AT_low_pc(0x00)
     604                      .dwattr $C$DW$42, DW_AT_TI_return
     605              
     606 0000010e 0006          LRETR     ; [CPU_] 
     607                      ; return occurs ; [] 
     608                      .dwattr $C$DW$27, DW_AT_TI_end_file("C:/ti/motorware_drv8353/motorware_1_01_00_18/sw/drivers/drvic/dr
     609                      .dwattr $C$DW$27, DW_AT_TI_end_line(0x4d1)
     610                      .dwattr $C$DW$27, DW_AT_TI_end_column(0x01)
TMS320C2000 Assembler PC v15.12.3 Wed Jul 04 16:10:52 2018

Tools Copyright (c) 1996-2015 Texas Instruments Incorporated
C:\Users\a0393005\AppData\Local\Temp\1506410                         PAGE   13

     611                      .dwendentry
     612                      .dwendtag $C$DW$27
     613              
     614 0000010f               .sect   ".text"
     615                      .clink
     616                      .global _DRV8353_readSpi
     617              
     618              $C$DW$43        .dwtag  DW_TAG_subprogram
     619                      .dwattr $C$DW$43, DW_AT_name("DRV8353_readSpi")
     620                      .dwattr $C$DW$43, DW_AT_low_pc(_DRV8353_readSpi)
     621                      .dwattr $C$DW$43, DW_AT_high_pc(0x00)
     622                      .dwattr $C$DW$43, DW_AT_TI_symbol_name("_DRV8353_readSpi")
     623                      .dwattr $C$DW$43, DW_AT_external
     624                      .dwattr $C$DW$43, DW_AT_type(*$C$DW$T$69)
     625                      .dwattr $C$DW$43, DW_AT_TI_begin_file("C:/ti/motorware_drv8353/motorware_1_01_00_18/sw/drivers/drvic/
     626                      .dwattr $C$DW$43, DW_AT_TI_begin_line(0x42c)
     627                      .dwattr $C$DW$43, DW_AT_TI_begin_column(0x0a)
     628                      .dwattr $C$DW$43, DW_AT_TI_max_frame_size(-8)
     629                      .dwpsn  file "C:/ti/motorware_drv8353/motorware_1_01_00_18/sw/drivers/drvic/drv8353/src/32b/f28x/f280
     630              
     631                      .dwfde $C$DW$CIE, _DRV8353_readSpi
     632              $C$DW$44        .dwtag  DW_TAG_variable
     633                      .dwattr $C$DW$44, DW_AT_name("WaitTimeOut")
     634                      .dwattr $C$DW$44, DW_AT_TI_symbol_name("_WaitTimeOut$2")
     635                      .dwattr $C$DW$44, DW_AT_type(*$C$DW$T$73)
     636                      .dwattr $C$DW$44, DW_AT_location[DW_OP_addr _WaitTimeOut$2]
     637              
     638              $C$DW$45        .dwtag  DW_TAG_formal_parameter
     639                      .dwattr $C$DW$45, DW_AT_name("handle")
     640                      .dwattr $C$DW$45, DW_AT_TI_symbol_name("_handle")
     641                      .dwattr $C$DW$45, DW_AT_type(*$C$DW$T$85)
     642                      .dwattr $C$DW$45, DW_AT_location[DW_OP_reg12]
     643              
     644              $C$DW$46        .dwtag  DW_TAG_formal_parameter
     645                      .dwattr $C$DW$46, DW_AT_name("regAddr")
     646                      .dwattr $C$DW$46, DW_AT_TI_symbol_name("_regAddr")
     647                      .dwattr $C$DW$46, DW_AT_type(*$C$DW$T$113)
     648                      .dwattr $C$DW$46, DW_AT_location[DW_OP_reg0]
     649              
     650              
     651              ;***************************************************************
     652              ;* FNAME: _DRV8353_readSpi              FR SIZE:   6           *
     653              ;*                                                             *
     654              ;* FUNCTION ENVIRONMENT                                        *
     655              ;*                                                             *
     656              ;* FUNCTION PROPERTIES                                         *
     657              ;*                            0 Parameter,  2 Auto,  4 SOE     *
     658              ;***************************************************************
     659              
     660              _DRV8353_readSpi:
     661              ;* AR2   assigned to _handle
     662              $C$DW$47        .dwtag  DW_TAG_variable
     663                      .dwattr $C$DW$47, DW_AT_name("handle")
     664                      .dwattr $C$DW$47, DW_AT_TI_symbol_name("_handle")
     665                      .dwattr $C$DW$47, DW_AT_type(*$C$DW$T$115)
TMS320C2000 Assembler PC v15.12.3 Wed Jul 04 16:10:52 2018

Tools Copyright (c) 1996-2015 Texas Instruments Incorporated
C:\Users\a0393005\AppData\Local\Temp\1506410                         PAGE   14

     666                      .dwattr $C$DW$47, DW_AT_location[DW_OP_reg8]
     667              
     668              ;* AR1   assigned to _regAddr
     669              $C$DW$48        .dwtag  DW_TAG_variable
     670                      .dwattr $C$DW$48, DW_AT_name("regAddr")
     671                      .dwattr $C$DW$48, DW_AT_TI_symbol_name("_regAddr")
     672                      .dwattr $C$DW$48, DW_AT_type(*$C$DW$T$113)
     673                      .dwattr $C$DW$48, DW_AT_location[DW_OP_reg6]
     674              
     675              ;* AR1   assigned to _ctrlWord
     676              $C$DW$49        .dwtag  DW_TAG_variable
     677                      .dwattr $C$DW$49, DW_AT_name("ctrlWord")
     678                      .dwattr $C$DW$49, DW_AT_TI_symbol_name("_ctrlWord")
     679                      .dwattr $C$DW$49, DW_AT_type(*$C$DW$T$69)
     680                      .dwattr $C$DW$49, DW_AT_location[DW_OP_reg6]
     681              
     682              ;* AL    assigned to _data
     683              $C$DW$50        .dwtag  DW_TAG_variable
     684                      .dwattr $C$DW$50, DW_AT_name("data")
     685                      .dwattr $C$DW$50, DW_AT_TI_symbol_name("_data")
     686                      .dwattr $C$DW$50, DW_AT_type(*$C$DW$T$69)
     687                      .dwattr $C$DW$50, DW_AT_location[DW_OP_reg0]
     688              
     689              $C$DW$51        .dwtag  DW_TAG_variable
     690                      .dwattr $C$DW$51, DW_AT_name("readWord")
     691                      .dwattr $C$DW$51, DW_AT_TI_symbol_name("_readWord")
     692                      .dwattr $C$DW$51, DW_AT_type(*$C$DW$T$73)
     693                      .dwattr $C$DW$51, DW_AT_location[DW_OP_breg20 -1]
     694              
     695              $C$DW$52        .dwtag  DW_TAG_variable
     696                      .dwattr $C$DW$52, DW_AT_name("RxFifoCnt")
     697                      .dwattr $C$DW$52, DW_AT_TI_symbol_name("_RxFifoCnt")
     698                      .dwattr $C$DW$52, DW_AT_type(*$C$DW$T$104)
     699                      .dwattr $C$DW$52, DW_AT_location[DW_OP_breg20 -2]
     700              
     701                      .dwcfi  cfa_offset, -2
     702                      .dwcfi  save_reg_to_mem, 26, 0
     703 0000010f B2BD          MOVL      *SP++,XAR1            ; [CPU_] 
     704                      .dwcfi  save_reg_to_mem, 7, 2
     705                      .dwcfi  cfa_offset, -4
     706 00000110 AABD          MOVL      *SP++,XAR2            ; [CPU_] 
     707                      .dwcfi  save_reg_to_mem, 9, 4
     708                      .dwcfi  cfa_offset, -6
     709 00000111 FE02          ADDB      SP,#2                 ; [CPU_U] 
     710                      .dwcfi  cfa_offset, -8
     711 00000112 86A4          MOVL      XAR2,XAR4             ; [CPU_] |1069| 
     712 00000113 59A9          MOVZ      AR1,AL                ; [CPU_] |1069| 
     713                      .dwpsn  file "C:/ti/motorware_drv8353/motorware_1_01_00_18/sw/drivers/drvic/drv8353/src/32b/f28x/f280
     714 00000114 2B42          MOV       *-SP[2],#0            ; [CPU_] |1076| 
     715                      .dwpsn  file "C:/ti/motorware_drv8353/motorware_1_01_00_18/sw/drivers/drvic/drv8353/src/32b/f28x/f280
     716 00000115 8AC2          MOVL      XAR4,*+XAR2[0]        ; [CPU_] |1082| 
     717              $C$DW$53        .dwtag  DW_TAG_TI_branch
     718                      .dwattr $C$DW$53, DW_AT_low_pc(0x00)
     719                      .dwattr $C$DW$53, DW_AT_name("_SPI_resetRxFifo")
     720                      .dwattr $C$DW$53, DW_AT_TI_call
TMS320C2000 Assembler PC v15.12.3 Wed Jul 04 16:10:52 2018

Tools Copyright (c) 1996-2015 Texas Instruments Incorporated
C:\Users\a0393005\AppData\Local\Temp\1506410                         PAGE   15

     721              
     722 00000116 7640!         LCR       #_SPI_resetRxFifo     ; [CPU_] |1082| 
         00000117 0000 
     723                      ; call occurs [#_SPI_resetRxFifo] ; [] |1082| 
     724                      .dwpsn  file "C:/ti/motorware_drv8353/motorware_1_01_00_18/sw/drivers/drvic/drv8353/src/32b/f28x/f280
     725 00000118 8AC2          MOVL      XAR4,*+XAR2[0]        ; [CPU_] |1083| 
     726              $C$DW$54        .dwtag  DW_TAG_TI_branch
     727                      .dwattr $C$DW$54, DW_AT_low_pc(0x00)
     728                      .dwattr $C$DW$54, DW_AT_name("_SPI_enableRxFifo")
     729                      .dwattr $C$DW$54, DW_AT_TI_call
     730              
     731 00000119 7640!         LCR       #_SPI_enableRxFifo    ; [CPU_] |1083| 
         0000011a 0000 
     732                      ; call occurs [#_SPI_enableRxFifo] ; [] |1083| 
     733                      .dwpsn  file "C:/ti/motorware_drv8353/motorware_1_01_00_18/sw/drivers/drvic/drv8353/src/32b/f28x/f280
     734 0000011b 9A07          MOVB      AL,#7                 ; [CPU_] |1085| 
     735 0000011c 8AD2          MOVL      XAR4,*+XAR2[2]        ; [CPU_] |1085| 
     736              $C$DW$55        .dwtag  DW_TAG_TI_branch
     737                      .dwattr $C$DW$55, DW_AT_low_pc(0x00)
     738                      .dwattr $C$DW$55, DW_AT_name("_GPIO_setLow")
     739                      .dwattr $C$DW$55, DW_AT_TI_call
     740              
     741 0000011d 7640!         LCR       #_GPIO_setLow         ; [CPU_] |1085| 
         0000011e 0000 
     742                      ; call occurs [#_GPIO_setLow] ; [] |1085| 
     743                      .dwpsn  file "C:/ti/motorware_drv8353/motorware_1_01_00_18/sw/drivers/drvic/drv8353/src/32b/f28x/f280
     744 0000011f 1AA1          OR        AR1,#0x8000           ; [CPU_] |792| 
         00000120 8000 
     745 00000121 BE05          MOVB      XAR6,#5               ; [CPU_] 
     746 00000122       $C$L5:    
     747 00000122 7700   NOP
     748                      .dwpsn  file "C:/ti/motorware_drv8353/motorware_1_01_00_18/sw/drivers/drvic/drv8353/src/32b/f28x/f280
     749 00000123 000E          BANZ      $C$L5,AR6--           ; [CPU_] |1088| 
         00000124 FFFF 
     750                      ; branchcc occurs ; [] |1088| 
     751                      .dwpsn  file "C:/ti/motorware_drv8353/motorware_1_01_00_18/sw/drivers/spi/src/32b/f28x/f2802x/spi.h",
     752 00000125 0208          MOVB      ACC,#8                ; [CPU_] |642| 
     753 00000126 07C2          ADDL      ACC,*+XAR2[0]         ; [CPU_] |642| 
     754 00000127 8AA9          MOVL      XAR4,ACC              ; [CPU_] |642| 
     755 00000128 79C4          MOV       *+XAR4[0],AR1         ; [CPU_] |642| 
     756                      .dwpsn  file "C:/ti/motorware_drv8353/motorware_1_01_00_18/sw/drivers/drvic/drv8353/src/32b/f28x/f280
     757 00000129 6F0D          B         $C$L7,UNC             ; [CPU_] |1095| 
     758                      ; branch occurs ; [] |1095| 
     759 0000012a       $C$L6:    
     760                      .dwpsn  file "C:/ti/motorware_drv8353/motorware_1_01_00_18/sw/drivers/drvic/drv8353/src/32b/f28x/f280
     761 0000012a 8AC2          MOVL      XAR4,*+XAR2[0]        ; [CPU_] |1097| 
     762 0000012b FF69          SPM       #0                    ; [CPU_] 
     763              $C$DW$56        .dwtag  DW_TAG_TI_branch
     764                      .dwattr $C$DW$56, DW_AT_low_pc(0x00)
     765                      .dwattr $C$DW$56, DW_AT_name("_SPI_getRxFifoStatus")
     766                      .dwattr $C$DW$56, DW_AT_TI_call
     767              
     768 0000012c 7640!         LCR       #_SPI_getRxFifoStatus ; [CPU_] |1097| 
         0000012d 0000 
     769                      ; call occurs [#_SPI_getRxFifoStatus] ; [] |1097| 
TMS320C2000 Assembler PC v15.12.3 Wed Jul 04 16:10:52 2018

Tools Copyright (c) 1996-2015 Texas Instruments Incorporated
C:\Users\a0393005\AppData\Local\Temp\1506410                         PAGE   16

     770 0000012e 761F-         MOVW      DP,#_WaitTimeOut$2    ; [CPU_U] 
         0000012f 0000 
     771 00000130 9642          MOV       *-SP[2],AL            ; [CPU_] |1097| 
     772                      .dwpsn  file "C:/ti/motorware_drv8353/motorware_1_01_00_18/sw/drivers/drvic/drv8353/src/32b/f28x/f280
     773 00000131 0A00-         INC       @_WaitTimeOut$2       ; [CPU_] |1098| 
     774 00000132 1B00-         CMP       @_WaitTimeOut$2,#65534 ; [CPU_] |1098| 
         00000133 FFFE 
     775                      .dwpsn  file "C:/ti/motorware_drv8353/motorware_1_01_00_18/sw/drivers/drvic/drv8353/src/32b/f28x/f280
     776 00000134 56B6          MOVB      *+XAR2[5],#1,HI       ; [CPU_] |1100| 
         00000135 01EA 
     777 00000136       $C$L7:    
     778                      .dwpsn  file "C:/ti/motorware_drv8353/motorware_1_01_00_18/sw/drivers/drvic/drv8353/src/32b/f28x/f280
     779 00000136 1B42          CMP       *-SP[2],#256          ; [CPU_] |1095| 
         00000137 0100 
     780 00000138 6706          B         $C$L8,HIS             ; [CPU_] |1095| 
     781                      ; branchcc occurs ; [] |1095| 
     782 00000139 761F-         MOVW      DP,#_WaitTimeOut$2    ; [CPU_U] 
         0000013a 0000 
     783 0000013b 1B00-         CMP       @_WaitTimeOut$2,#65535 ; [CPU_] |1095| 
         0000013c FFFF 
     784 0000013d 68ED          B         $C$L6,LO              ; [CPU_] |1095| 
     785                      ; branchcc occurs ; [] |1095| 
     786 0000013e       $C$L8:    
     787                      .dwpsn  file "C:/ti/motorware_drv8353/motorware_1_01_00_18/sw/drivers/drvic/drv8353/src/32b/f28x/f280
     788 0000013e 8AD2          MOVL      XAR4,*+XAR2[2]        ; [CPU_] |1104| 
     789 0000013f 9A07          MOVB      AL,#7                 ; [CPU_] |1104| 
     790 00000140 FF69          SPM       #0                    ; [CPU_] 
     791              $C$DW$57        .dwtag  DW_TAG_TI_branch
     792                      .dwattr $C$DW$57, DW_AT_low_pc(0x00)
     793                      .dwattr $C$DW$57, DW_AT_name("_GPIO_setHigh")
     794                      .dwattr $C$DW$57, DW_AT_TI_call
     795              
     796 00000141 7640!         LCR       #_GPIO_setHigh        ; [CPU_] |1104| 
         00000142 0000 
     797                      ; call occurs [#_GPIO_setHigh] ; [] |1104| 
     798                      .dwpsn  file "C:/ti/motorware_drv8353/motorware_1_01_00_18/sw/drivers/spi/src/32b/f28x/f2802x/spi.h",
     799 00000143 8AC2          MOVL      XAR4,*+XAR2[0]        ; [CPU_] |535| 
     800 00000144 92F4          MOV       AL,*+XAR4[6]          ; [CPU_] |535| 
     801                      .dwpsn  file "C:/ti/motorware_drv8353/motorware_1_01_00_18/sw/drivers/drvic/drv8353/src/32b/f28x/f280
     802 00000145 9641          MOV       *-SP[1],AL            ; [CPU_] |1107| 
     803                      .dwpsn  file "C:/ti/motorware_drv8353/motorware_1_01_00_18/sw/drivers/drvic/drv8353/src/32b/f28x/f280
     804 00000146 CC41          AND       AL,*-SP[1],#0x07ff    ; [CPU_] |1109| 
         00000147 07FF 
     805 00000148 FE82          SUBB      SP,#2                 ; [CPU_U] 
     806                      .dwcfi  cfa_offset, -6
     807 00000149 86BE          MOVL      XAR2,*--SP            ; [CPU_] 
     808                      .dwcfi  cfa_offset, -4
     809                      .dwcfi  restore_reg, 9
     810 0000014a 8BBE          MOVL      XAR1,*--SP            ; [CPU_] 
     811                      .dwcfi  cfa_offset, -2
     812                      .dwcfi  restore_reg, 7
     813              $C$DW$58        .dwtag  DW_TAG_TI_branch
     814                      .dwattr $C$DW$58, DW_AT_low_pc(0x00)
     815                      .dwattr $C$DW$58, DW_AT_TI_return
     816              
TMS320C2000 Assembler PC v15.12.3 Wed Jul 04 16:10:52 2018

Tools Copyright (c) 1996-2015 Texas Instruments Incorporated
C:\Users\a0393005\AppData\Local\Temp\1506410                         PAGE   17

     817 0000014b 0006          LRETR     ; [CPU_] 
     818                      ; return occurs ; [] 
     819                      .dwattr $C$DW$43, DW_AT_TI_end_file("C:/ti/motorware_drv8353/motorware_1_01_00_18/sw/drivers/drvic/dr
     820                      .dwattr $C$DW$43, DW_AT_TI_end_line(0x456)
     821                      .dwattr $C$DW$43, DW_AT_TI_end_column(0x01)
     822                      .dwendentry
     823                      .dwendtag $C$DW$43
     824              
     825 0000014c               .sect   ".text"
     826                      .clink
     827                      .global _DRV8353_setupSpi
     828              
     829              $C$DW$59        .dwtag  DW_TAG_subprogram
     830                      .dwattr $C$DW$59, DW_AT_name("DRV8353_setupSpi")
     831                      .dwattr $C$DW$59, DW_AT_low_pc(_DRV8353_setupSpi)
     832                      .dwattr $C$DW$59, DW_AT_high_pc(0x00)
     833                      .dwattr $C$DW$59, DW_AT_TI_symbol_name("_DRV8353_setupSpi")
     834                      .dwattr $C$DW$59, DW_AT_external
     835                      .dwattr $C$DW$59, DW_AT_TI_begin_file("C:/ti/motorware_drv8353/motorware_1_01_00_18/sw/drivers/drvic/
     836                      .dwattr $C$DW$59, DW_AT_TI_begin_line(0x3b5)
     837                      .dwattr $C$DW$59, DW_AT_TI_begin_column(0x06)
     838                      .dwattr $C$DW$59, DW_AT_TI_max_frame_size(-6)
     839                      .dwpsn  file "C:/ti/motorware_drv8353/motorware_1_01_00_18/sw/drivers/drvic/drv8353/src/32b/f28x/f280
     840              
     841                      .dwfde $C$DW$CIE, _DRV8353_setupSpi
     842              $C$DW$60        .dwtag  DW_TAG_formal_parameter
     843                      .dwattr $C$DW$60, DW_AT_name("handle")
     844                      .dwattr $C$DW$60, DW_AT_TI_symbol_name("_handle")
     845                      .dwattr $C$DW$60, DW_AT_type(*$C$DW$T$85)
     846                      .dwattr $C$DW$60, DW_AT_location[DW_OP_reg12]
     847              
     848              $C$DW$61        .dwtag  DW_TAG_formal_parameter
     849                      .dwattr $C$DW$61, DW_AT_name("Spi_8353_Vars")
     850                      .dwattr $C$DW$61, DW_AT_TI_symbol_name("_Spi_8353_Vars")
     851                      .dwattr $C$DW$61, DW_AT_type(*$C$DW$T$122)
     852                      .dwattr $C$DW$61, DW_AT_location[DW_OP_reg14]
     853              
     854              
     855              ;***************************************************************
     856              ;* FNAME: _DRV8353_setupSpi             FR SIZE:   4           *
     857              ;*                                                             *
     858              ;* FUNCTION ENVIRONMENT                                        *
     859              ;*                                                             *
     860              ;* FUNCTION PROPERTIES                                         *
     861              ;*                            0 Parameter,  0 Auto,  4 SOE     *
     862              ;***************************************************************
     863              
     864              _DRV8353_setupSpi:
     865              ;* AR2   assigned to _handle
     866              $C$DW$62        .dwtag  DW_TAG_variable
     867                      .dwattr $C$DW$62, DW_AT_name("handle")
     868                      .dwattr $C$DW$62, DW_AT_TI_symbol_name("_handle")
     869                      .dwattr $C$DW$62, DW_AT_type(*$C$DW$T$115)
     870                      .dwattr $C$DW$62, DW_AT_location[DW_OP_reg8]
     871              
TMS320C2000 Assembler PC v15.12.3 Wed Jul 04 16:10:52 2018

Tools Copyright (c) 1996-2015 Texas Instruments Incorporated
C:\Users\a0393005\AppData\Local\Temp\1506410                         PAGE   18

     872              ;* AR1   assigned to _Spi_8353_Vars
     873              $C$DW$63        .dwtag  DW_TAG_variable
     874                      .dwattr $C$DW$63, DW_AT_name("Spi_8353_Vars")
     875                      .dwattr $C$DW$63, DW_AT_TI_symbol_name("_Spi_8353_Vars")
     876                      .dwattr $C$DW$63, DW_AT_type(*$C$DW$T$123)
     877                      .dwattr $C$DW$63, DW_AT_location[DW_OP_reg6]
     878              
     879              ;* AL    assigned to _drvDataNew
     880              $C$DW$64        .dwtag  DW_TAG_variable
     881                      .dwattr $C$DW$64, DW_AT_name("drvDataNew")
     882                      .dwattr $C$DW$64, DW_AT_TI_symbol_name("_drvDataNew")
     883                      .dwattr $C$DW$64, DW_AT_type(*$C$DW$T$69)
     884                      .dwattr $C$DW$64, DW_AT_location[DW_OP_reg0]
     885              
     886                      .dwcfi  cfa_offset, -2
     887                      .dwcfi  save_reg_to_mem, 26, 0
     888 0000014c B2BD          MOVL      *SP++,XAR1            ; [CPU_] 
     889                      .dwcfi  save_reg_to_mem, 7, 2
     890                      .dwcfi  cfa_offset, -4
     891 0000014d 8BA5          MOVL      XAR1,XAR5             ; [CPU_] |950| 
     892                      .dwpsn  file "C:/ti/motorware_drv8353/motorware_1_01_00_18/sw/drivers/drvic/drv8353/src/32b/f28x/f280
     893 0000014e D043          MOVB      XAR0,#67              ; [CPU_] |956| 
     894 0000014f AABD          MOVL      *SP++,XAR2            ; [CPU_] 
     895                      .dwcfi  save_reg_to_mem, 9, 4
     896                      .dwcfi  cfa_offset, -6
     897                      .dwpsn  file "C:/ti/motorware_drv8353/motorware_1_01_00_18/sw/drivers/drvic/drv8353/src/32b/f28x/f280
     898 00000150 9A00          MOVB      AL,#0                 ; [CPU_] |970| 
     899                      .dwpsn  file "C:/ti/motorware_drv8353/motorware_1_01_00_18/sw/drivers/drvic/drv8353/src/32b/f28x/f280
     900 00000151 2B91          MOV       *+XAR1[AR0],#0        ; [CPU_] |956| 
     901                      .dwpsn  file "C:/ti/motorware_drv8353/motorware_1_01_00_18/sw/drivers/drvic/drv8353/src/32b/f28x/f280
     902 00000152 86A4          MOVL      XAR2,XAR4             ; [CPU_] |950| 
     903                      .dwpsn  file "C:/ti/motorware_drv8353/motorware_1_01_00_18/sw/drivers/drvic/drv8353/src/32b/f28x/f280
     904 00000153 D045          MOVB      XAR0,#69              ; [CPU_] |957| 
     905 00000154 2B91          MOV       *+XAR1[AR0],#0        ; [CPU_] |957| 
     906                      .dwpsn  file "C:/ti/motorware_drv8353/motorware_1_01_00_18/sw/drivers/drvic/drv8353/src/32b/f28x/f280
     907 00000155 D047          MOVB      XAR0,#71              ; [CPU_] |958| 
     908 00000156 2B91          MOV       *+XAR1[AR0],#0        ; [CPU_] |958| 
     909                      .dwpsn  file "C:/ti/motorware_drv8353/motorware_1_01_00_18/sw/drivers/drvic/drv8353/src/32b/f28x/f280
     910 00000157 D042          MOVB      XAR0,#66              ; [CPU_] |959| 
     911 00000158 2B91          MOV       *+XAR1[AR0],#0        ; [CPU_] |959| 
     912                      .dwpsn  file "C:/ti/motorware_drv8353/motorware_1_01_00_18/sw/drivers/drvic/drv8353/src/32b/f28x/f280
     913 00000159 D044          MOVB      XAR0,#68              ; [CPU_] |960| 
     914 0000015a 2B91          MOV       *+XAR1[AR0],#0        ; [CPU_] |960| 
     915                      .dwpsn  file "C:/ti/motorware_drv8353/motorware_1_01_00_18/sw/drivers/drvic/drv8353/src/32b/f28x/f280
     916 0000015b D046          MOVB      XAR0,#70              ; [CPU_] |961| 
     917 0000015c 2B91          MOV       *+XAR1[AR0],#0        ; [CPU_] |961| 
     918                      .dwpsn  file "C:/ti/motorware_drv8353/motorware_1_01_00_18/sw/drivers/drvic/drv8353/src/32b/f28x/f280
     919 0000015d D041          MOVB      XAR0,#65              ; [CPU_] |964| 
     920 0000015e 2B91          MOV       *+XAR1[AR0],#0        ; [CPU_] |964| 
     921                      .dwpsn  file "C:/ti/motorware_drv8353/motorware_1_01_00_18/sw/drivers/drvic/drv8353/src/32b/f28x/f280
     922 0000015f D040          MOVB      XAR0,#64              ; [CPU_] |965| 
     923 00000160 2B91          MOV       *+XAR1[AR0],#0        ; [CPU_] |965| 
     924                      .dwpsn  file "C:/ti/motorware_drv8353/motorware_1_01_00_18/sw/drivers/drvic/drv8353/src/32b/f28x/f280
     925              $C$DW$65        .dwtag  DW_TAG_TI_branch
     926                      .dwattr $C$DW$65, DW_AT_low_pc(0x00)
TMS320C2000 Assembler PC v15.12.3 Wed Jul 04 16:10:52 2018

Tools Copyright (c) 1996-2015 Texas Instruments Incorporated
C:\Users\a0393005\AppData\Local\Temp\1506410                         PAGE   19

     927                      .dwattr $C$DW$65, DW_AT_name("_DRV8353_readSpi")
     928                      .dwattr $C$DW$65, DW_AT_TI_call
     929              
     930 00000161 7640'         LCR       #_DRV8353_readSpi     ; [CPU_] |970| 
         00000162 010F 
     931                      ; call occurs [#_DRV8353_readSpi] ; [] |970| 
     932                      .dwpsn  file "C:/ti/motorware_drv8353/motorware_1_01_00_18/sw/drivers/drvic/drv8353/src/32b/f28x/f280
     933 00000163 CDA9          AND       AH,AL,#0x0001         ; [CPU_] |971| 
         00000164 0001 
     934 00000165 97C1          MOV       *+XAR1[0],AH          ; [CPU_] |971| 
     935                      .dwpsn  file "C:/ti/motorware_drv8353/motorware_1_01_00_18/sw/drivers/drvic/drv8353/src/32b/f28x/f280
     936 00000166 93A9          MOV       AH,AL                 ; [CPU_] |972| 
     937 00000167 FFD0          LSR       AH,1                  ; [CPU_] |972| 
     938 00000168 9101          ANDB      AH,#0x01              ; [CPU_] |972| 
     939                      .dwpsn  file "C:/ti/motorware_drv8353/motorware_1_01_00_18/sw/drivers/drvic/drv8353/src/32b/f28x/f280
     940 00000169 D008          MOVB      XAR0,#8               ; [CPU_] |979| 
     941                      .dwpsn  file "C:/ti/motorware_drv8353/motorware_1_01_00_18/sw/drivers/drvic/drv8353/src/32b/f28x/f280
     942 0000016a 97C9          MOV       *+XAR1[1],AH          ; [CPU_] |972| 
     943                      .dwpsn  file "C:/ti/motorware_drv8353/motorware_1_01_00_18/sw/drivers/drvic/drv8353/src/32b/f28x/f280
     944 0000016b 93A9          MOV       AH,AL                 ; [CPU_] |973| 
     945                      .dwpsn  file "C:/ti/motorware_drv8353/motorware_1_01_00_18/sw/drivers/drvic/drv8353/src/32b/f28x/f280
     946 0000016c 8AA2          MOVL      XAR4,XAR2             ; [CPU_] |985| 
     947                      .dwpsn  file "C:/ti/motorware_drv8353/motorware_1_01_00_18/sw/drivers/drvic/drv8353/src/32b/f28x/f280
     948 0000016d FFD1          LSR       AH,2                  ; [CPU_] |973| 
     949 0000016e 9101          ANDB      AH,#0x01              ; [CPU_] |973| 
     950 0000016f 97D1          MOV       *+XAR1[2],AH          ; [CPU_] |973| 
     951                      .dwpsn  file "C:/ti/motorware_drv8353/motorware_1_01_00_18/sw/drivers/drvic/drv8353/src/32b/f28x/f280
     952 00000170 93A9          MOV       AH,AL                 ; [CPU_] |974| 
     953 00000171 FFD2          LSR       AH,3                  ; [CPU_] |974| 
     954 00000172 9101          ANDB      AH,#0x01              ; [CPU_] |974| 
     955 00000173 97D9          MOV       *+XAR1[3],AH          ; [CPU_] |974| 
     956                      .dwpsn  file "C:/ti/motorware_drv8353/motorware_1_01_00_18/sw/drivers/drvic/drv8353/src/32b/f28x/f280
     957 00000174 93A9          MOV       AH,AL                 ; [CPU_] |975| 
     958 00000175 FFD3          LSR       AH,4                  ; [CPU_] |975| 
     959 00000176 9101          ANDB      AH,#0x01              ; [CPU_] |975| 
     960 00000177 97E1          MOV       *+XAR1[4],AH          ; [CPU_] |975| 
     961                      .dwpsn  file "C:/ti/motorware_drv8353/motorware_1_01_00_18/sw/drivers/drvic/drv8353/src/32b/f28x/f280
     962 00000178 93A9          MOV       AH,AL                 ; [CPU_] |976| 
     963 00000179 FFD4          LSR       AH,5                  ; [CPU_] |976| 
     964 0000017a 9101          ANDB      AH,#0x01              ; [CPU_] |976| 
     965 0000017b 97E9          MOV       *+XAR1[5],AH          ; [CPU_] |976| 
     966                      .dwpsn  file "C:/ti/motorware_drv8353/motorware_1_01_00_18/sw/drivers/drvic/drv8353/src/32b/f28x/f280
     967 0000017c 93A9          MOV       AH,AL                 ; [CPU_] |977| 
     968 0000017d FFD5          LSR       AH,6                  ; [CPU_] |977| 
     969 0000017e 9101          ANDB      AH,#0x01              ; [CPU_] |977| 
     970 0000017f 97F1          MOV       *+XAR1[6],AH          ; [CPU_] |977| 
     971                      .dwpsn  file "C:/ti/motorware_drv8353/motorware_1_01_00_18/sw/drivers/drvic/drv8353/src/32b/f28x/f280
     972 00000180 93A9          MOV       AH,AL                 ; [CPU_] |978| 
     973 00000181 FFD6          LSR       AH,7                  ; [CPU_] |978| 
     974 00000182 9101          ANDB      AH,#0x01              ; [CPU_] |978| 
     975 00000183 97F9          MOV       *+XAR1[7],AH          ; [CPU_] |978| 
     976                      .dwpsn  file "C:/ti/motorware_drv8353/motorware_1_01_00_18/sw/drivers/drvic/drv8353/src/32b/f28x/f280
     977 00000184 93A9          MOV       AH,AL                 ; [CPU_] |979| 
     978 00000185 FFD7          LSR       AH,8                  ; [CPU_] |979| 
     979 00000186 9101          ANDB      AH,#0x01              ; [CPU_] |979| 
TMS320C2000 Assembler PC v15.12.3 Wed Jul 04 16:10:52 2018

Tools Copyright (c) 1996-2015 Texas Instruments Incorporated
C:\Users\a0393005\AppData\Local\Temp\1506410                         PAGE   20

     980 00000187 9791          MOV       *+XAR1[AR0],AH        ; [CPU_] |979| 
     981                      .dwpsn  file "C:/ti/motorware_drv8353/motorware_1_01_00_18/sw/drivers/drvic/drv8353/src/32b/f28x/f280
     982 00000188 93A9          MOV       AH,AL                 ; [CPU_] |980| 
     983 00000189 D009          MOVB      XAR0,#9               ; [CPU_] |980| 
     984 0000018a FFD8          LSR       AH,9                  ; [CPU_] |980| 
     985 0000018b 9101          ANDB      AH,#0x01              ; [CPU_] |980| 
     986                      .dwpsn  file "C:/ti/motorware_drv8353/motorware_1_01_00_18/sw/drivers/drvic/drv8353/src/32b/f28x/f280
     987 0000018c FFC9          LSR       AL,10                 ; [CPU_] |981| 
     988 0000018d 9001          ANDB      AL,#0x01              ; [CPU_] |981| 
     989                      .dwpsn  file "C:/ti/motorware_drv8353/motorware_1_01_00_18/sw/drivers/drvic/drv8353/src/32b/f28x/f280
     990 0000018e 9791          MOV       *+XAR1[AR0],AH        ; [CPU_] |980| 
     991                      .dwpsn  file "C:/ti/motorware_drv8353/motorware_1_01_00_18/sw/drivers/drvic/drv8353/src/32b/f28x/f280
     992 0000018f D00A          MOVB      XAR0,#10              ; [CPU_] |981| 
     993 00000190 9691          MOV       *+XAR1[AR0],AL        ; [CPU_] |981| 
     994                      .dwpsn  file "C:/ti/motorware_drv8353/motorware_1_01_00_18/sw/drivers/drvic/drv8353/src/32b/f28x/f280
     995 00000191 28A9          MOV       AL,#2048              ; [CPU_] |985| 
         00000192 0800 
     996              $C$DW$66        .dwtag  DW_TAG_TI_branch
     997                      .dwattr $C$DW$66, DW_AT_low_pc(0x00)
     998                      .dwattr $C$DW$66, DW_AT_name("_DRV8353_readSpi")
     999                      .dwattr $C$DW$66, DW_AT_TI_call
    1000              
    1001 00000193 7640'         LCR       #_DRV8353_readSpi     ; [CPU_] |985| 
         00000194 010F 
    1002                      ; call occurs [#_DRV8353_readSpi] ; [] |985| 
    1003                      .dwpsn  file "C:/ti/motorware_drv8353/motorware_1_01_00_18/sw/drivers/drvic/drv8353/src/32b/f28x/f280
    1004 00000195 D00B          MOVB      XAR0,#11              ; [CPU_] |986| 
    1005 00000196 CDA9          AND       AH,AL,#0x0001         ; [CPU_] |986| 
         00000197 0001 
    1006 00000198 9791          MOV       *+XAR1[AR0],AH        ; [CPU_] |986| 
    1007                      .dwpsn  file "C:/ti/motorware_drv8353/motorware_1_01_00_18/sw/drivers/drvic/drv8353/src/32b/f28x/f280
    1008 00000199 D00C          MOVB      XAR0,#12              ; [CPU_] |987| 
    1009 0000019a 93A9          MOV       AH,AL                 ; [CPU_] |987| 
    1010 0000019b FFD0          LSR       AH,1                  ; [CPU_] |987| 
    1011 0000019c 9101          ANDB      AH,#0x01              ; [CPU_] |987| 
    1012 0000019d 9791          MOV       *+XAR1[AR0],AH        ; [CPU_] |987| 
    1013                      .dwpsn  file "C:/ti/motorware_drv8353/motorware_1_01_00_18/sw/drivers/drvic/drv8353/src/32b/f28x/f280
    1014 0000019e D00D          MOVB      XAR0,#13              ; [CPU_] |988| 
    1015 0000019f 93A9          MOV       AH,AL                 ; [CPU_] |988| 
    1016                      .dwpsn  file "C:/ti/motorware_drv8353/motorware_1_01_00_18/sw/drivers/drvic/drv8353/src/32b/f28x/f280
    1017 000001a0 8AA2          MOVL      XAR4,XAR2             ; [CPU_] |1000| 
    1018                      .dwpsn  file "C:/ti/motorware_drv8353/motorware_1_01_00_18/sw/drivers/drvic/drv8353/src/32b/f28x/f280
    1019 000001a1 FFD1          LSR       AH,2                  ; [CPU_] |988| 
    1020 000001a2 9101          ANDB      AH,#0x01              ; [CPU_] |988| 
    1021 000001a3 9791          MOV       *+XAR1[AR0],AH        ; [CPU_] |988| 
    1022                      .dwpsn  file "C:/ti/motorware_drv8353/motorware_1_01_00_18/sw/drivers/drvic/drv8353/src/32b/f28x/f280
    1023 000001a4 D00E          MOVB      XAR0,#14              ; [CPU_] |989| 
    1024 000001a5 93A9          MOV       AH,AL                 ; [CPU_] |989| 
    1025 000001a6 FFD2          LSR       AH,3                  ; [CPU_] |989| 
    1026 000001a7 9101          ANDB      AH,#0x01              ; [CPU_] |989| 
    1027 000001a8 9791          MOV       *+XAR1[AR0],AH        ; [CPU_] |989| 
    1028                      .dwpsn  file "C:/ti/motorware_drv8353/motorware_1_01_00_18/sw/drivers/drvic/drv8353/src/32b/f28x/f280
    1029 000001a9 D00F          MOVB      XAR0,#15              ; [CPU_] |990| 
    1030 000001aa 93A9          MOV       AH,AL                 ; [CPU_] |990| 
    1031 000001ab FFD3          LSR       AH,4                  ; [CPU_] |990| 
TMS320C2000 Assembler PC v15.12.3 Wed Jul 04 16:10:52 2018

Tools Copyright (c) 1996-2015 Texas Instruments Incorporated
C:\Users\a0393005\AppData\Local\Temp\1506410                         PAGE   21

    1032 000001ac 9101          ANDB      AH,#0x01              ; [CPU_] |990| 
    1033 000001ad 9791          MOV       *+XAR1[AR0],AH        ; [CPU_] |990| 
    1034                      .dwpsn  file "C:/ti/motorware_drv8353/motorware_1_01_00_18/sw/drivers/drvic/drv8353/src/32b/f28x/f280
    1035 000001ae D010          MOVB      XAR0,#16              ; [CPU_] |991| 
    1036 000001af 93A9          MOV       AH,AL                 ; [CPU_] |991| 
    1037 000001b0 FFD4          LSR       AH,5                  ; [CPU_] |991| 
    1038 000001b1 9101          ANDB      AH,#0x01              ; [CPU_] |991| 
    1039 000001b2 9791          MOV       *+XAR1[AR0],AH        ; [CPU_] |991| 
    1040                      .dwpsn  file "C:/ti/motorware_drv8353/motorware_1_01_00_18/sw/drivers/drvic/drv8353/src/32b/f28x/f280
    1041 000001b3 D011          MOVB      XAR0,#17              ; [CPU_] |992| 
    1042 000001b4 93A9          MOV       AH,AL                 ; [CPU_] |992| 
    1043 000001b5 FFD5          LSR       AH,6                  ; [CPU_] |992| 
    1044 000001b6 9101          ANDB      AH,#0x01              ; [CPU_] |992| 
    1045 000001b7 9791          MOV       *+XAR1[AR0],AH        ; [CPU_] |992| 
    1046                      .dwpsn  file "C:/ti/motorware_drv8353/motorware_1_01_00_18/sw/drivers/drvic/drv8353/src/32b/f28x/f280
    1047 000001b8 D012          MOVB      XAR0,#18              ; [CPU_] |993| 
    1048 000001b9 93A9          MOV       AH,AL                 ; [CPU_] |993| 
    1049 000001ba FFD6          LSR       AH,7                  ; [CPU_] |993| 
    1050 000001bb 9101          ANDB      AH,#0x01              ; [CPU_] |993| 
    1051 000001bc 9791          MOV       *+XAR1[AR0],AH        ; [CPU_] |993| 
    1052                      .dwpsn  file "C:/ti/motorware_drv8353/motorware_1_01_00_18/sw/drivers/drvic/drv8353/src/32b/f28x/f280
    1053 000001bd D013          MOVB      XAR0,#19              ; [CPU_] |994| 
    1054 000001be 93A9          MOV       AH,AL                 ; [CPU_] |994| 
    1055 000001bf FFD7          LSR       AH,8                  ; [CPU_] |994| 
    1056 000001c0 9101          ANDB      AH,#0x01              ; [CPU_] |994| 
    1057 000001c1 9791          MOV       *+XAR1[AR0],AH        ; [CPU_] |994| 
    1058                      .dwpsn  file "C:/ti/motorware_drv8353/motorware_1_01_00_18/sw/drivers/drvic/drv8353/src/32b/f28x/f280
    1059 000001c2 93A9          MOV       AH,AL                 ; [CPU_] |995| 
    1060 000001c3 D014          MOVB      XAR0,#20              ; [CPU_] |995| 
    1061 000001c4 FFD8          LSR       AH,9                  ; [CPU_] |995| 
    1062 000001c5 9101          ANDB      AH,#0x01              ; [CPU_] |995| 
    1063                      .dwpsn  file "C:/ti/motorware_drv8353/motorware_1_01_00_18/sw/drivers/drvic/drv8353/src/32b/f28x/f280
    1064 000001c6 FFC9          LSR       AL,10                 ; [CPU_] |996| 
    1065 000001c7 9001          ANDB      AL,#0x01              ; [CPU_] |996| 
    1066                      .dwpsn  file "C:/ti/motorware_drv8353/motorware_1_01_00_18/sw/drivers/drvic/drv8353/src/32b/f28x/f280
    1067 000001c8 9791          MOV       *+XAR1[AR0],AH        ; [CPU_] |995| 
    1068                      .dwpsn  file "C:/ti/motorware_drv8353/motorware_1_01_00_18/sw/drivers/drvic/drv8353/src/32b/f28x/f280
    1069 000001c9 D015          MOVB      XAR0,#21              ; [CPU_] |996| 
    1070 000001ca 9691          MOV       *+XAR1[AR0],AL        ; [CPU_] |996| 
    1071                      .dwpsn  file "C:/ti/motorware_drv8353/motorware_1_01_00_18/sw/drivers/drvic/drv8353/src/32b/f28x/f280
    1072 000001cb 28A9          MOV       AL,#4096              ; [CPU_] |1000| 
         000001cc 1000 
    1073              $C$DW$67        .dwtag  DW_TAG_TI_branch
    1074                      .dwattr $C$DW$67, DW_AT_low_pc(0x00)
    1075                      .dwattr $C$DW$67, DW_AT_name("_DRV8353_readSpi")
    1076                      .dwattr $C$DW$67, DW_AT_TI_call
    1077              
    1078 000001cd 7640'         LCR       #_DRV8353_readSpi     ; [CPU_] |1000| 
         000001ce 010F 
    1079                      ; call occurs [#_DRV8353_readSpi] ; [] |1000| 
    1080                      .dwpsn  file "C:/ti/motorware_drv8353/motorware_1_01_00_18/sw/drivers/drvic/drv8353/src/32b/f28x/f280
    1081 000001cf D016          MOVB      XAR0,#22              ; [CPU_] |1001| 
    1082 000001d0 CDA9          AND       AH,AL,#0x0001         ; [CPU_] |1001| 
         000001d1 0001 
    1083 000001d2 9791          MOV       *+XAR1[AR0],AH        ; [CPU_] |1001| 
TMS320C2000 Assembler PC v15.12.3 Wed Jul 04 16:10:52 2018

Tools Copyright (c) 1996-2015 Texas Instruments Incorporated
C:\Users\a0393005\AppData\Local\Temp\1506410                         PAGE   22

    1084                      .dwpsn  file "C:/ti/motorware_drv8353/motorware_1_01_00_18/sw/drivers/drvic/drv8353/src/32b/f28x/f280
    1085 000001d3 D017          MOVB      XAR0,#23              ; [CPU_] |1002| 
    1086 000001d4 93A9          MOV       AH,AL                 ; [CPU_] |1002| 
    1087 000001d5 FFD0          LSR       AH,1                  ; [CPU_] |1002| 
    1088 000001d6 9101          ANDB      AH,#0x01              ; [CPU_] |1002| 
    1089 000001d7 9791          MOV       *+XAR1[AR0],AH        ; [CPU_] |1002| 
    1090                      .dwpsn  file "C:/ti/motorware_drv8353/motorware_1_01_00_18/sw/drivers/drvic/drv8353/src/32b/f28x/f280
    1091 000001d8 8AA2          MOVL      XAR4,XAR2             ; [CPU_] |1014| 
    1092                      .dwpsn  file "C:/ti/motorware_drv8353/motorware_1_01_00_18/sw/drivers/drvic/drv8353/src/32b/f28x/f280
    1093 000001d9 D018          MOVB      XAR0,#24              ; [CPU_] |1003| 
    1094 000001da 93A9          MOV       AH,AL                 ; [CPU_] |1003| 
    1095 000001db FFD1          LSR       AH,2                  ; [CPU_] |1003| 
    1096 000001dc 9101          ANDB      AH,#0x01              ; [CPU_] |1003| 
    1097 000001dd 9791          MOV       *+XAR1[AR0],AH        ; [CPU_] |1003| 
    1098                      .dwpsn  file "C:/ti/motorware_drv8353/motorware_1_01_00_18/sw/drivers/drvic/drv8353/src/32b/f28x/f280
    1099 000001de D019          MOVB      XAR0,#25              ; [CPU_] |1004| 
    1100 000001df 93A9          MOV       AH,AL                 ; [CPU_] |1004| 
    1101 000001e0 FFD2          LSR       AH,3                  ; [CPU_] |1004| 
    1102 000001e1 9101          ANDB      AH,#0x01              ; [CPU_] |1004| 
    1103 000001e2 9791          MOV       *+XAR1[AR0],AH        ; [CPU_] |1004| 
    1104                      .dwpsn  file "C:/ti/motorware_drv8353/motorware_1_01_00_18/sw/drivers/drvic/drv8353/src/32b/f28x/f280
    1105 000001e3 D01A          MOVB      XAR0,#26              ; [CPU_] |1005| 
    1106 000001e4 93A9          MOV       AH,AL                 ; [CPU_] |1005| 
    1107 000001e5 FFD3          LSR       AH,4                  ; [CPU_] |1005| 
    1108 000001e6 9101          ANDB      AH,#0x01              ; [CPU_] |1005| 
    1109 000001e7 9791          MOV       *+XAR1[AR0],AH        ; [CPU_] |1005| 
    1110                      .dwpsn  file "C:/ti/motorware_drv8353/motorware_1_01_00_18/sw/drivers/drvic/drv8353/src/32b/f28x/f280
    1111 000001e8 D01B          MOVB      XAR0,#27              ; [CPU_] |1006| 
    1112 000001e9 CDA9          AND       AH,AL,#0x0060         ; [CPU_] |1006| 
         000001ea 0060 
    1113 000001eb 9791          MOV       *+XAR1[AR0],AH        ; [CPU_] |1006| 
    1114                      .dwpsn  file "C:/ti/motorware_drv8353/motorware_1_01_00_18/sw/drivers/drvic/drv8353/src/32b/f28x/f280
    1115 000001ec D01C          MOVB      XAR0,#28              ; [CPU_] |1007| 
    1116 000001ed 93A9          MOV       AH,AL                 ; [CPU_] |1007| 
    1117 000001ee FFD6          LSR       AH,7                  ; [CPU_] |1007| 
    1118 000001ef 9101          ANDB      AH,#0x01              ; [CPU_] |1007| 
    1119 000001f0 9791          MOV       *+XAR1[AR0],AH        ; [CPU_] |1007| 
    1120                      .dwpsn  file "C:/ti/motorware_drv8353/motorware_1_01_00_18/sw/drivers/drvic/drv8353/src/32b/f28x/f280
    1121 000001f1 D01D          MOVB      XAR0,#29              ; [CPU_] |1008| 
    1122 000001f2 93A9          MOV       AH,AL                 ; [CPU_] |1008| 
    1123 000001f3 FFD7          LSR       AH,8                  ; [CPU_] |1008| 
    1124 000001f4 9101          ANDB      AH,#0x01              ; [CPU_] |1008| 
    1125 000001f5 9791          MOV       *+XAR1[AR0],AH        ; [CPU_] |1008| 
    1126                      .dwpsn  file "C:/ti/motorware_drv8353/motorware_1_01_00_18/sw/drivers/drvic/drv8353/src/32b/f28x/f280
    1127 000001f6 93A9          MOV       AH,AL                 ; [CPU_] |1009| 
    1128 000001f7 D01E          MOVB      XAR0,#30              ; [CPU_] |1009| 
    1129 000001f8 FFD8          LSR       AH,9                  ; [CPU_] |1009| 
    1130 000001f9 9101          ANDB      AH,#0x01              ; [CPU_] |1009| 
    1131                      .dwpsn  file "C:/ti/motorware_drv8353/motorware_1_01_00_18/sw/drivers/drvic/drv8353/src/32b/f28x/f280
    1132 000001fa FFC9          LSR       AL,10                 ; [CPU_] |1010| 
    1133 000001fb 9001          ANDB      AL,#0x01              ; [CPU_] |1010| 
    1134                      .dwpsn  file "C:/ti/motorware_drv8353/motorware_1_01_00_18/sw/drivers/drvic/drv8353/src/32b/f28x/f280
    1135 000001fc 9791          MOV       *+XAR1[AR0],AH        ; [CPU_] |1009| 
    1136                      .dwpsn  file "C:/ti/motorware_drv8353/motorware_1_01_00_18/sw/drivers/drvic/drv8353/src/32b/f28x/f280
    1137 000001fd D01F          MOVB      XAR0,#31              ; [CPU_] |1010| 
TMS320C2000 Assembler PC v15.12.3 Wed Jul 04 16:10:52 2018

Tools Copyright (c) 1996-2015 Texas Instruments Incorporated
C:\Users\a0393005\AppData\Local\Temp\1506410                         PAGE   23

    1138 000001fe 9691          MOV       *+XAR1[AR0],AL        ; [CPU_] |1010| 
    1139                      .dwpsn  file "C:/ti/motorware_drv8353/motorware_1_01_00_18/sw/drivers/drvic/drv8353/src/32b/f28x/f280
    1140 000001ff 28A9          MOV       AL,#6144              ; [CPU_] |1014| 
         00000200 1800 
    1141              $C$DW$68        .dwtag  DW_TAG_TI_branch
    1142                      .dwattr $C$DW$68, DW_AT_low_pc(0x00)
    1143                      .dwattr $C$DW$68, DW_AT_name("_DRV8353_readSpi")
    1144                      .dwattr $C$DW$68, DW_AT_TI_call
    1145              
    1146 00000201 7640'         LCR       #_DRV8353_readSpi     ; [CPU_] |1014| 
         00000202 010F 
    1147                      ; call occurs [#_DRV8353_readSpi] ; [] |1014| 
    1148                      .dwpsn  file "C:/ti/motorware_drv8353/motorware_1_01_00_18/sw/drivers/drvic/drv8353/src/32b/f28x/f280
    1149 00000203 D020          MOVB      XAR0,#32              ; [CPU_] |1015| 
    1150 00000204 CDA9          AND       AH,AL,#0x000f         ; [CPU_] |1015| 
         00000205 000F 
    1151 00000206 9791          MOV       *+XAR1[AR0],AH        ; [CPU_] |1015| 
    1152                      .dwpsn  file "C:/ti/motorware_drv8353/motorware_1_01_00_18/sw/drivers/drvic/drv8353/src/32b/f28x/f280
    1153 00000207 8AA2          MOVL      XAR4,XAR2             ; [CPU_] |1021| 
    1154                      .dwpsn  file "C:/ti/motorware_drv8353/motorware_1_01_00_18/sw/drivers/drvic/drv8353/src/32b/f28x/f280
    1155 00000208 D021          MOVB      XAR0,#33              ; [CPU_] |1016| 
    1156 00000209 CDA9          AND       AH,AL,#0x00f0         ; [CPU_] |1016| 
         0000020a 00F0 
    1157                      .dwpsn  file "C:/ti/motorware_drv8353/motorware_1_01_00_18/sw/drivers/drvic/drv8353/src/32b/f28x/f280
    1158 0000020b CCA9          AND       AL,AL,#0x0700         ; [CPU_] |1017| 
         0000020c 0700 
    1159                      .dwpsn  file "C:/ti/motorware_drv8353/motorware_1_01_00_18/sw/drivers/drvic/drv8353/src/32b/f28x/f280
    1160 0000020d 9791          MOV       *+XAR1[AR0],AH        ; [CPU_] |1016| 
    1161                      .dwpsn  file "C:/ti/motorware_drv8353/motorware_1_01_00_18/sw/drivers/drvic/drv8353/src/32b/f28x/f280
    1162 0000020e D022          MOVB      XAR0,#34              ; [CPU_] |1017| 
    1163 0000020f 9691          MOV       *+XAR1[AR0],AL        ; [CPU_] |1017| 
    1164                      .dwpsn  file "C:/ti/motorware_drv8353/motorware_1_01_00_18/sw/drivers/drvic/drv8353/src/32b/f28x/f280
    1165 00000210 28A9          MOV       AL,#8192              ; [CPU_] |1021| 
         00000211 2000 
    1166              $C$DW$69        .dwtag  DW_TAG_TI_branch
    1167                      .dwattr $C$DW$69, DW_AT_low_pc(0x00)
    1168                      .dwattr $C$DW$69, DW_AT_name("_DRV8353_readSpi")
    1169                      .dwattr $C$DW$69, DW_AT_TI_call
    1170              
    1171 00000212 7640'         LCR       #_DRV8353_readSpi     ; [CPU_] |1021| 
         00000213 010F 
    1172                      ; call occurs [#_DRV8353_readSpi] ; [] |1021| 
    1173                      .dwpsn  file "C:/ti/motorware_drv8353/motorware_1_01_00_18/sw/drivers/drvic/drv8353/src/32b/f28x/f280
    1174 00000214 D023          MOVB      XAR0,#35              ; [CPU_] |1022| 
    1175 00000215 CDA9          AND       AH,AL,#0x000f         ; [CPU_] |1022| 
         00000216 000F 
    1176 00000217 9791          MOV       *+XAR1[AR0],AH        ; [CPU_] |1022| 
    1177                      .dwpsn  file "C:/ti/motorware_drv8353/motorware_1_01_00_18/sw/drivers/drvic/drv8353/src/32b/f28x/f280
    1178 00000218 D024          MOVB      XAR0,#36              ; [CPU_] |1023| 
    1179                      .dwpsn  file "C:/ti/motorware_drv8353/motorware_1_01_00_18/sw/drivers/drvic/drv8353/src/32b/f28x/f280
    1180 00000219 8AA2          MOVL      XAR4,XAR2             ; [CPU_] |1029| 
    1181                      .dwpsn  file "C:/ti/motorware_drv8353/motorware_1_01_00_18/sw/drivers/drvic/drv8353/src/32b/f28x/f280
    1182 0000021a CDA9          AND       AH,AL,#0x00f0         ; [CPU_] |1023| 
         0000021b 00F0 
    1183 0000021c 9791          MOV       *+XAR1[AR0],AH        ; [CPU_] |1023| 
TMS320C2000 Assembler PC v15.12.3 Wed Jul 04 16:10:52 2018

Tools Copyright (c) 1996-2015 Texas Instruments Incorporated
C:\Users\a0393005\AppData\Local\Temp\1506410                         PAGE   24

    1184                      .dwpsn  file "C:/ti/motorware_drv8353/motorware_1_01_00_18/sw/drivers/drvic/drv8353/src/32b/f28x/f280
    1185 0000021d D025          MOVB      XAR0,#37              ; [CPU_] |1024| 
    1186 0000021e CDA9          AND       AH,AL,#0x0300         ; [CPU_] |1024| 
         0000021f 0300 
    1187                      .dwpsn  file "C:/ti/motorware_drv8353/motorware_1_01_00_18/sw/drivers/drvic/drv8353/src/32b/f28x/f280
    1188 00000220 FFC9          LSR       AL,10                 ; [CPU_] |1025| 
    1189 00000221 9001          ANDB      AL,#0x01              ; [CPU_] |1025| 
    1190                      .dwpsn  file "C:/ti/motorware_drv8353/motorware_1_01_00_18/sw/drivers/drvic/drv8353/src/32b/f28x/f280
    1191 00000222 9791          MOV       *+XAR1[AR0],AH        ; [CPU_] |1024| 
    1192                      .dwpsn  file "C:/ti/motorware_drv8353/motorware_1_01_00_18/sw/drivers/drvic/drv8353/src/32b/f28x/f280
    1193 00000223 D026          MOVB      XAR0,#38              ; [CPU_] |1025| 
    1194 00000224 9691          MOV       *+XAR1[AR0],AL        ; [CPU_] |1025| 
    1195                      .dwpsn  file "C:/ti/motorware_drv8353/motorware_1_01_00_18/sw/drivers/drvic/drv8353/src/32b/f28x/f280
    1196 00000225 28A9          MOV       AL,#10240             ; [CPU_] |1029| 
         00000226 2800 
    1197              $C$DW$70        .dwtag  DW_TAG_TI_branch
    1198                      .dwattr $C$DW$70, DW_AT_low_pc(0x00)
    1199                      .dwattr $C$DW$70, DW_AT_name("_DRV8353_readSpi")
    1200                      .dwattr $C$DW$70, DW_AT_TI_call
    1201              
    1202 00000227 7640'         LCR       #_DRV8353_readSpi     ; [CPU_] |1029| 
         00000228 010F 
    1203                      ; call occurs [#_DRV8353_readSpi] ; [] |1029| 
    1204                      .dwpsn  file "C:/ti/motorware_drv8353/motorware_1_01_00_18/sw/drivers/drvic/drv8353/src/32b/f28x/f280
    1205 00000229 D027          MOVB      XAR0,#39              ; [CPU_] |1030| 
    1206 0000022a CDA9          AND       AH,AL,#0x000f         ; [CPU_] |1030| 
         0000022b 000F 
    1207 0000022c 9791          MOV       *+XAR1[AR0],AH        ; [CPU_] |1030| 
    1208                      .dwpsn  file "C:/ti/motorware_drv8353/motorware_1_01_00_18/sw/drivers/drvic/drv8353/src/32b/f28x/f280
    1209 0000022d D028          MOVB      XAR0,#40              ; [CPU_] |1031| 
    1210 0000022e CDA9          AND       AH,AL,#0x0030         ; [CPU_] |1031| 
         0000022f 0030 
    1211                      .dwpsn  file "C:/ti/motorware_drv8353/motorware_1_01_00_18/sw/drivers/drvic/drv8353/src/32b/f28x/f280
    1212 00000230 8AA2          MOVL      XAR4,XAR2             ; [CPU_] |1038| 
    1213                      .dwpsn  file "C:/ti/motorware_drv8353/motorware_1_01_00_18/sw/drivers/drvic/drv8353/src/32b/f28x/f280
    1214 00000231 9791          MOV       *+XAR1[AR0],AH        ; [CPU_] |1031| 
    1215                      .dwpsn  file "C:/ti/motorware_drv8353/motorware_1_01_00_18/sw/drivers/drvic/drv8353/src/32b/f28x/f280
    1216 00000232 D029          MOVB      XAR0,#41              ; [CPU_] |1032| 
    1217 00000233 CDA9          AND       AH,AL,#0x00c0         ; [CPU_] |1032| 
         00000234 00C0 
    1218 00000235 9791          MOV       *+XAR1[AR0],AH        ; [CPU_] |1032| 
    1219                      .dwpsn  file "C:/ti/motorware_drv8353/motorware_1_01_00_18/sw/drivers/drvic/drv8353/src/32b/f28x/f280
    1220 00000236 D02A          MOVB      XAR0,#42              ; [CPU_] |1033| 
    1221 00000237 CDA9          AND       AH,AL,#0x0300         ; [CPU_] |1033| 
         00000238 0300 
    1222                      .dwpsn  file "C:/ti/motorware_drv8353/motorware_1_01_00_18/sw/drivers/drvic/drv8353/src/32b/f28x/f280
    1223 00000239 FFC9          LSR       AL,10                 ; [CPU_] |1034| 
    1224 0000023a 9001          ANDB      AL,#0x01              ; [CPU_] |1034| 
    1225                      .dwpsn  file "C:/ti/motorware_drv8353/motorware_1_01_00_18/sw/drivers/drvic/drv8353/src/32b/f28x/f280
    1226 0000023b 9791          MOV       *+XAR1[AR0],AH        ; [CPU_] |1033| 
    1227                      .dwpsn  file "C:/ti/motorware_drv8353/motorware_1_01_00_18/sw/drivers/drvic/drv8353/src/32b/f28x/f280
    1228 0000023c D02B          MOVB      XAR0,#43              ; [CPU_] |1034| 
    1229 0000023d 9691          MOV       *+XAR1[AR0],AL        ; [CPU_] |1034| 
    1230                      .dwpsn  file "C:/ti/motorware_drv8353/motorware_1_01_00_18/sw/drivers/drvic/drv8353/src/32b/f28x/f280
    1231 0000023e 28A9          MOV       AL,#12288             ; [CPU_] |1038| 
TMS320C2000 Assembler PC v15.12.3 Wed Jul 04 16:10:52 2018

Tools Copyright (c) 1996-2015 Texas Instruments Incorporated
C:\Users\a0393005\AppData\Local\Temp\1506410                         PAGE   25

         0000023f 3000 
    1232              $C$DW$71        .dwtag  DW_TAG_TI_branch
    1233                      .dwattr $C$DW$71, DW_AT_low_pc(0x00)
    1234                      .dwattr $C$DW$71, DW_AT_name("_DRV8353_readSpi")
    1235                      .dwattr $C$DW$71, DW_AT_TI_call
    1236              
    1237 00000240 7640'         LCR       #_DRV8353_readSpi     ; [CPU_] |1038| 
         00000241 010F 
    1238                      ; call occurs [#_DRV8353_readSpi] ; [] |1038| 
    1239                      .dwpsn  file "C:/ti/motorware_drv8353/motorware_1_01_00_18/sw/drivers/drvic/drv8353/src/32b/f28x/f280
    1240 00000242 D02C          MOVB      XAR0,#44              ; [CPU_] |1039| 
    1241 00000243 CDA9          AND       AH,AL,#0x0003         ; [CPU_] |1039| 
         00000244 0003 
    1242 00000245 9791          MOV       *+XAR1[AR0],AH        ; [CPU_] |1039| 
    1243                      .dwpsn  file "C:/ti/motorware_drv8353/motorware_1_01_00_18/sw/drivers/drvic/drv8353/src/32b/f28x/f280
    1244 00000246 93A9          MOV       AH,AL                 ; [CPU_] |1040| 
    1245 00000247 D02D          MOVB      XAR0,#45              ; [CPU_] |1040| 
    1246 00000248 FFD1          LSR       AH,2                  ; [CPU_] |1040| 
    1247 00000249 9101          ANDB      AH,#0x01              ; [CPU_] |1040| 
    1248                      .dwpsn  file "C:/ti/motorware_drv8353/motorware_1_01_00_18/sw/drivers/drvic/drv8353/src/32b/f28x/f280
    1249 0000024a 8AA2          MOVL      XAR4,XAR2             ; [CPU_] |1051| 
    1250                      .dwpsn  file "C:/ti/motorware_drv8353/motorware_1_01_00_18/sw/drivers/drvic/drv8353/src/32b/f28x/f280
    1251 0000024b 9791          MOV       *+XAR1[AR0],AH        ; [CPU_] |1040| 
    1252                      .dwpsn  file "C:/ti/motorware_drv8353/motorware_1_01_00_18/sw/drivers/drvic/drv8353/src/32b/f28x/f280
    1253 0000024c D02E          MOVB      XAR0,#46              ; [CPU_] |1041| 
    1254 0000024d 93A9          MOV       AH,AL                 ; [CPU_] |1041| 
    1255 0000024e FFD2          LSR       AH,3                  ; [CPU_] |1041| 
    1256 0000024f 9101          ANDB      AH,#0x01              ; [CPU_] |1041| 
    1257 00000250 9791          MOV       *+XAR1[AR0],AH        ; [CPU_] |1041| 
    1258                      .dwpsn  file "C:/ti/motorware_drv8353/motorware_1_01_00_18/sw/drivers/drvic/drv8353/src/32b/f28x/f280
    1259 00000251 D02F          MOVB      XAR0,#47              ; [CPU_] |1042| 
    1260 00000252 93A9          MOV       AH,AL                 ; [CPU_] |1042| 
    1261 00000253 FFD3          LSR       AH,4                  ; [CPU_] |1042| 
    1262 00000254 9101          ANDB      AH,#0x01              ; [CPU_] |1042| 
    1263 00000255 9791          MOV       *+XAR1[AR0],AH        ; [CPU_] |1042| 
    1264                      .dwpsn  file "C:/ti/motorware_drv8353/motorware_1_01_00_18/sw/drivers/drvic/drv8353/src/32b/f28x/f280
    1265 00000256 D030          MOVB      XAR0,#48              ; [CPU_] |1043| 
    1266 00000257 93A9          MOV       AH,AL                 ; [CPU_] |1043| 
    1267 00000258 FFD4          LSR       AH,5                  ; [CPU_] |1043| 
    1268 00000259 9101          ANDB      AH,#0x01              ; [CPU_] |1043| 
    1269 0000025a 9791          MOV       *+XAR1[AR0],AH        ; [CPU_] |1043| 
    1270                      .dwpsn  file "C:/ti/motorware_drv8353/motorware_1_01_00_18/sw/drivers/drvic/drv8353/src/32b/f28x/f280
    1271 0000025b D031          MOVB      XAR0,#49              ; [CPU_] |1044| 
    1272 0000025c CDA9          AND       AH,AL,#0x00c0         ; [CPU_] |1044| 
         0000025d 00C0 
    1273 0000025e 9791          MOV       *+XAR1[AR0],AH        ; [CPU_] |1044| 
    1274                      .dwpsn  file "C:/ti/motorware_drv8353/motorware_1_01_00_18/sw/drivers/drvic/drv8353/src/32b/f28x/f280
    1275 0000025f D032          MOVB      XAR0,#50              ; [CPU_] |1045| 
    1276 00000260 93A9          MOV       AH,AL                 ; [CPU_] |1045| 
    1277 00000261 FFD7          LSR       AH,8                  ; [CPU_] |1045| 
    1278 00000262 9101          ANDB      AH,#0x01              ; [CPU_] |1045| 
    1279 00000263 9791          MOV       *+XAR1[AR0],AH        ; [CPU_] |1045| 
    1280                      .dwpsn  file "C:/ti/motorware_drv8353/motorware_1_01_00_18/sw/drivers/drvic/drv8353/src/32b/f28x/f280
    1281 00000264 93A9          MOV       AH,AL                 ; [CPU_] |1046| 
    1282 00000265 D033          MOVB      XAR0,#51              ; [CPU_] |1046| 
TMS320C2000 Assembler PC v15.12.3 Wed Jul 04 16:10:52 2018

Tools Copyright (c) 1996-2015 Texas Instruments Incorporated
C:\Users\a0393005\AppData\Local\Temp\1506410                         PAGE   26

    1283 00000266 FFD8          LSR       AH,9                  ; [CPU_] |1046| 
    1284 00000267 9101          ANDB      AH,#0x01              ; [CPU_] |1046| 
    1285                      .dwpsn  file "C:/ti/motorware_drv8353/motorware_1_01_00_18/sw/drivers/drvic/drv8353/src/32b/f28x/f280
    1286 00000268 FFC9          LSR       AL,10                 ; [CPU_] |1047| 
    1287 00000269 9001          ANDB      AL,#0x01              ; [CPU_] |1047| 
    1288                      .dwpsn  file "C:/ti/motorware_drv8353/motorware_1_01_00_18/sw/drivers/drvic/drv8353/src/32b/f28x/f280
    1289 0000026a 9791          MOV       *+XAR1[AR0],AH        ; [CPU_] |1046| 
    1290                      .dwpsn  file "C:/ti/motorware_drv8353/motorware_1_01_00_18/sw/drivers/drvic/drv8353/src/32b/f28x/f280
    1291 0000026b D034          MOVB      XAR0,#52              ; [CPU_] |1047| 
    1292 0000026c 9691          MOV       *+XAR1[AR0],AL        ; [CPU_] |1047| 
    1293                      .dwpsn  file "C:/ti/motorware_drv8353/motorware_1_01_00_18/sw/drivers/drvic/drv8353/src/32b/f28x/f280
    1294 0000026d 28A9          MOV       AL,#14336             ; [CPU_] |1051| 
         0000026e 3800 
    1295              $C$DW$72        .dwtag  DW_TAG_TI_branch
    1296                      .dwattr $C$DW$72, DW_AT_low_pc(0x00)
    1297                      .dwattr $C$DW$72, DW_AT_name("_DRV8353_readSpi")
    1298                      .dwattr $C$DW$72, DW_AT_TI_call
    1299              
    1300 0000026f 7640'         LCR       #_DRV8353_readSpi     ; [CPU_] |1051| 
         00000270 010F 
    1301                      ; call occurs [#_DRV8353_readSpi] ; [] |1051| 
    1302                      .dwpsn  file "C:/ti/motorware_drv8353/motorware_1_01_00_18/sw/drivers/drvic/drv8353/src/32b/f28x/f280
    1303 00000271 D035          MOVB      XAR0,#53              ; [CPU_] |1052| 
    1304 00000272 CDA9          AND       AH,AL,#0x0001         ; [CPU_] |1052| 
         00000273 0001 
    1305 00000274 9791          MOV       *+XAR1[AR0],AH        ; [CPU_] |1052| 
    1306                      .dwpsn  file "C:/ti/motorware_drv8353/motorware_1_01_00_18/sw/drivers/drvic/drv8353/src/32b/f28x/f280
    1307 00000275 D036          MOVB      XAR0,#54              ; [CPU_] |1053| 
    1308 00000276 93A9          MOV       AH,AL                 ; [CPU_] |1053| 
    1309 00000277 FFD0          LSR       AH,1                  ; [CPU_] |1053| 
    1310 00000278 9101          ANDB      AH,#0x01              ; [CPU_] |1053| 
    1311 00000279 9791          MOV       *+XAR1[AR0],AH        ; [CPU_] |1053| 
    1312                      .dwpsn  file "C:/ti/motorware_drv8353/motorware_1_01_00_18/sw/drivers/drvic/drv8353/src/32b/f28x/f280
    1313 0000027a D037          MOVB      XAR0,#55              ; [CPU_] |1054| 
    1314 0000027b 93A9          MOV       AH,AL                 ; [CPU_] |1054| 
    1315 0000027c FFD1          LSR       AH,2                  ; [CPU_] |1054| 
    1316 0000027d 9101          ANDB      AH,#0x01              ; [CPU_] |1054| 
    1317 0000027e 9791          MOV       *+XAR1[AR0],AH        ; [CPU_] |1054| 
    1318                      .dwpsn  file "C:/ti/motorware_drv8353/motorware_1_01_00_18/sw/drivers/drvic/drv8353/src/32b/f28x/f280
    1319 0000027f D038          MOVB      XAR0,#56              ; [CPU_] |1055| 
    1320 00000280 93A9          MOV       AH,AL                 ; [CPU_] |1055| 
    1321 00000281 FFD2          LSR       AH,3                  ; [CPU_] |1055| 
    1322 00000282 9101          ANDB      AH,#0x01              ; [CPU_] |1055| 
    1323 00000283 9791          MOV       *+XAR1[AR0],AH        ; [CPU_] |1055| 
    1324                      .dwpsn  file "C:/ti/motorware_drv8353/motorware_1_01_00_18/sw/drivers/drvic/drv8353/src/32b/f28x/f280
    1325 00000284 D039          MOVB      XAR0,#57              ; [CPU_] |1056| 
    1326 00000285 93A9          MOV       AH,AL                 ; [CPU_] |1056| 
    1327 00000286 FFD3          LSR       AH,4                  ; [CPU_] |1056| 
    1328 00000287 9101          ANDB      AH,#0x01              ; [CPU_] |1056| 
    1329 00000288 9791          MOV       *+XAR1[AR0],AH        ; [CPU_] |1056| 
    1330                      .dwpsn  file "C:/ti/motorware_drv8353/motorware_1_01_00_18/sw/drivers/drvic/drv8353/src/32b/f28x/f280
    1331 00000289 D03A          MOVB      XAR0,#58              ; [CPU_] |1057| 
    1332 0000028a 93A9          MOV       AH,AL                 ; [CPU_] |1057| 
    1333 0000028b FFD4          LSR       AH,5                  ; [CPU_] |1057| 
    1334 0000028c 9101          ANDB      AH,#0x01              ; [CPU_] |1057| 
TMS320C2000 Assembler PC v15.12.3 Wed Jul 04 16:10:52 2018

Tools Copyright (c) 1996-2015 Texas Instruments Incorporated
C:\Users\a0393005\AppData\Local\Temp\1506410                         PAGE   27

    1335 0000028d 9791          MOV       *+XAR1[AR0],AH        ; [CPU_] |1057| 
    1336                      .dwpsn  file "C:/ti/motorware_drv8353/motorware_1_01_00_18/sw/drivers/drvic/drv8353/src/32b/f28x/f280
    1337 0000028e D03B          MOVB      XAR0,#59              ; [CPU_] |1058| 
    1338 0000028f 93A9          MOV       AH,AL                 ; [CPU_] |1058| 
    1339 00000290 FFD5          LSR       AH,6                  ; [CPU_] |1058| 
    1340 00000291 9101          ANDB      AH,#0x01              ; [CPU_] |1058| 
    1341 00000292 9791          MOV       *+XAR1[AR0],AH        ; [CPU_] |1058| 
    1342                      .dwpsn  file "C:/ti/motorware_drv8353/motorware_1_01_00_18/sw/drivers/drvic/drv8353/src/32b/f28x/f280
    1343 00000293 D03C          MOVB      XAR0,#60              ; [CPU_] |1059| 
    1344 00000294 93A9          MOV       AH,AL                 ; [CPU_] |1059| 
    1345 00000295 FFD6          LSR       AH,7                  ; [CPU_] |1059| 
    1346 00000296 9101          ANDB      AH,#0x01              ; [CPU_] |1059| 
    1347 00000297 9791          MOV       *+XAR1[AR0],AH        ; [CPU_] |1059| 
    1348                      .dwpsn  file "C:/ti/motorware_drv8353/motorware_1_01_00_18/sw/drivers/drvic/drv8353/src/32b/f28x/f280
    1349 00000298 D03D          MOVB      XAR0,#61              ; [CPU_] |1060| 
    1350 00000299 93A9          MOV       AH,AL                 ; [CPU_] |1060| 
    1351 0000029a FFD7          LSR       AH,8                  ; [CPU_] |1060| 
    1352 0000029b 9101          ANDB      AH,#0x01              ; [CPU_] |1060| 
    1353 0000029c 9791          MOV       *+XAR1[AR0],AH        ; [CPU_] |1060| 
    1354                      .dwpsn  file "C:/ti/motorware_drv8353/motorware_1_01_00_18/sw/drivers/drvic/drv8353/src/32b/f28x/f280
    1355 0000029d 93A9          MOV       AH,AL                 ; [CPU_] |1061| 
    1356 0000029e D03E          MOVB      XAR0,#62              ; [CPU_] |1061| 
    1357 0000029f FFD8          LSR       AH,9                  ; [CPU_] |1061| 
    1358 000002a0 9101          ANDB      AH,#0x01              ; [CPU_] |1061| 
    1359                      .dwpsn  file "C:/ti/motorware_drv8353/motorware_1_01_00_18/sw/drivers/drvic/drv8353/src/32b/f28x/f280
    1360 000002a1 FFC9          LSR       AL,10                 ; [CPU_] |1062| 
    1361 000002a2 9001          ANDB      AL,#0x01              ; [CPU_] |1062| 
    1362                      .dwpsn  file "C:/ti/motorware_drv8353/motorware_1_01_00_18/sw/drivers/drvic/drv8353/src/32b/f28x/f280
    1363 000002a3 9791          MOV       *+XAR1[AR0],AH        ; [CPU_] |1061| 
    1364                      .dwpsn  file "C:/ti/motorware_drv8353/motorware_1_01_00_18/sw/drivers/drvic/drv8353/src/32b/f28x/f280
    1365 000002a4 D03F          MOVB      XAR0,#63              ; [CPU_] |1062| 
    1366 000002a5 9691          MOV       *+XAR1[AR0],AL        ; [CPU_] |1062| 
    1367 000002a6 86BE          MOVL      XAR2,*--SP            ; [CPU_] 
    1368                      .dwcfi  cfa_offset, -4
    1369                      .dwcfi  restore_reg, 9
    1370 000002a7 8BBE          MOVL      XAR1,*--SP            ; [CPU_] 
    1371                      .dwcfi  cfa_offset, -2
    1372                      .dwcfi  restore_reg, 7
    1373              $C$DW$73        .dwtag  DW_TAG_TI_branch
    1374                      .dwattr $C$DW$73, DW_AT_low_pc(0x00)
    1375                      .dwattr $C$DW$73, DW_AT_TI_return
    1376              
    1377 000002a8 0006          LRETR     ; [CPU_] 
    1378                      ; return occurs ; [] 
    1379                      .dwattr $C$DW$59, DW_AT_TI_end_file("C:/ti/motorware_drv8353/motorware_1_01_00_18/sw/drivers/drvic/dr
    1380                      .dwattr $C$DW$59, DW_AT_TI_end_line(0x429)
    1381                      .dwattr $C$DW$59, DW_AT_TI_end_column(0x01)
    1382                      .dwendentry
    1383                      .dwendtag $C$DW$59
    1384              
    1385 000002a9               .sect   ".text"
    1386                      .clink
    1387                      .global _DRV8353_setSpiHandle
    1388              
    1389              $C$DW$74        .dwtag  DW_TAG_subprogram
TMS320C2000 Assembler PC v15.12.3 Wed Jul 04 16:10:52 2018

Tools Copyright (c) 1996-2015 Texas Instruments Incorporated
C:\Users\a0393005\AppData\Local\Temp\1506410                         PAGE   28

    1390                      .dwattr $C$DW$74, DW_AT_name("DRV8353_setSpiHandle")
    1391                      .dwattr $C$DW$74, DW_AT_low_pc(_DRV8353_setSpiHandle)
    1392                      .dwattr $C$DW$74, DW_AT_high_pc(0x00)
    1393                      .dwattr $C$DW$74, DW_AT_TI_symbol_name("_DRV8353_setSpiHandle")
    1394                      .dwattr $C$DW$74, DW_AT_external
    1395                      .dwattr $C$DW$74, DW_AT_TI_begin_file("C:/ti/motorware_drv8353/motorware_1_01_00_18/sw/drivers/drvic/
    1396                      .dwattr $C$DW$74, DW_AT_TI_begin_line(0x1c0)
    1397                      .dwattr $C$DW$74, DW_AT_TI_begin_column(0x06)
    1398                      .dwattr $C$DW$74, DW_AT_TI_max_frame_size(-2)
    1399                      .dwpsn  file "C:/ti/motorware_drv8353/motorware_1_01_00_18/sw/drivers/drvic/drv8353/src/32b/f28x/f280
    1400              
    1401                      .dwfde $C$DW$CIE, _DRV8353_setSpiHandle
    1402              $C$DW$75        .dwtag  DW_TAG_formal_parameter
    1403                      .dwattr $C$DW$75, DW_AT_name("handle")
    1404                      .dwattr $C$DW$75, DW_AT_TI_symbol_name("_handle")
    1405                      .dwattr $C$DW$75, DW_AT_type(*$C$DW$T$85)
    1406                      .dwattr $C$DW$75, DW_AT_location[DW_OP_reg12]
    1407              
    1408              $C$DW$76        .dwtag  DW_TAG_formal_parameter
    1409                      .dwattr $C$DW$76, DW_AT_name("spiHandle")
    1410                      .dwattr $C$DW$76, DW_AT_TI_symbol_name("_spiHandle")
    1411                      .dwattr $C$DW$76, DW_AT_type(*$C$DW$T$20)
    1412                      .dwattr $C$DW$76, DW_AT_location[DW_OP_reg14]
    1413              
    1414              
    1415              ;***************************************************************
    1416              ;* FNAME: _DRV8353_setSpiHandle         FR SIZE:   0           *
    1417              ;*                                                             *
    1418              ;* FUNCTION ENVIRONMENT                                        *
    1419              ;*                                                             *
    1420              ;* FUNCTION PROPERTIES                                         *
    1421              ;*                            0 Parameter,  0 Auto,  0 SOE     *
    1422              ;***************************************************************
    1423              
    1424              _DRV8353_setSpiHandle:
    1425              ;* AR4   assigned to _handle
    1426              $C$DW$77        .dwtag  DW_TAG_variable
    1427                      .dwattr $C$DW$77, DW_AT_name("handle")
    1428                      .dwattr $C$DW$77, DW_AT_TI_symbol_name("_handle")
    1429                      .dwattr $C$DW$77, DW_AT_type(*$C$DW$T$115)
    1430                      .dwattr $C$DW$77, DW_AT_location[DW_OP_reg12]
    1431              
    1432              ;* AR5   assigned to _spiHandle
    1433              $C$DW$78        .dwtag  DW_TAG_variable
    1434                      .dwattr $C$DW$78, DW_AT_name("spiHandle")
    1435                      .dwattr $C$DW$78, DW_AT_TI_symbol_name("_spiHandle")
    1436                      .dwattr $C$DW$78, DW_AT_type(*$C$DW$T$129)
    1437                      .dwattr $C$DW$78, DW_AT_location[DW_OP_reg14]
    1438              
    1439                      .dwcfi  cfa_offset, -2
    1440                      .dwcfi  save_reg_to_mem, 26, 0
    1441                      .dwpsn  file "C:/ti/motorware_drv8353/motorware_1_01_00_18/sw/drivers/drvic/drv8353/src/32b/f28x/f280
    1442 000002a9 A0C4          MOVL      *+XAR4[0],XAR5        ; [CPU_] |453| 
    1443              $C$DW$79        .dwtag  DW_TAG_TI_branch
    1444                      .dwattr $C$DW$79, DW_AT_low_pc(0x00)
TMS320C2000 Assembler PC v15.12.3 Wed Jul 04 16:10:52 2018

Tools Copyright (c) 1996-2015 Texas Instruments Incorporated
C:\Users\a0393005\AppData\Local\Temp\1506410                         PAGE   29

    1445                      .dwattr $C$DW$79, DW_AT_TI_return
    1446              
    1447 000002aa 0006          LRETR     ; [CPU_] 
    1448                      ; return occurs ; [] 
    1449                      .dwattr $C$DW$74, DW_AT_TI_end_file("C:/ti/motorware_drv8353/motorware_1_01_00_18/sw/drivers/drvic/dr
    1450                      .dwattr $C$DW$74, DW_AT_TI_end_line(0x1c8)
    1451                      .dwattr $C$DW$74, DW_AT_TI_end_column(0x01)
    1452                      .dwendentry
    1453                      .dwendtag $C$DW$74
    1454              
    1455 000002ab               .sect   ".text"
    1456                      .clink
    1457                      .global _DRV8353_setGpioNumber
    1458              
    1459              $C$DW$80        .dwtag  DW_TAG_subprogram
    1460                      .dwattr $C$DW$80, DW_AT_name("DRV8353_setGpioNumber")
    1461                      .dwattr $C$DW$80, DW_AT_low_pc(_DRV8353_setGpioNumber)
    1462                      .dwattr $C$DW$80, DW_AT_high_pc(0x00)
    1463                      .dwattr $C$DW$80, DW_AT_TI_symbol_name("_DRV8353_setGpioNumber")
    1464                      .dwattr $C$DW$80, DW_AT_external
    1465                      .dwattr $C$DW$80, DW_AT_TI_begin_file("C:/ti/motorware_drv8353/motorware_1_01_00_18/sw/drivers/drvic/
    1466                      .dwattr $C$DW$80, DW_AT_TI_begin_line(0x1d6)
    1467                      .dwattr $C$DW$80, DW_AT_TI_begin_column(0x06)
    1468                      .dwattr $C$DW$80, DW_AT_TI_max_frame_size(-2)
    1469                      .dwpsn  file "C:/ti/motorware_drv8353/motorware_1_01_00_18/sw/drivers/drvic/drv8353/src/32b/f28x/f280
    1470              
    1471                      .dwfde $C$DW$CIE, _DRV8353_setGpioNumber
    1472              $C$DW$81        .dwtag  DW_TAG_formal_parameter
    1473                      .dwattr $C$DW$81, DW_AT_name("handle")
    1474                      .dwattr $C$DW$81, DW_AT_TI_symbol_name("_handle")
    1475                      .dwattr $C$DW$81, DW_AT_type(*$C$DW$T$85)
    1476                      .dwattr $C$DW$81, DW_AT_location[DW_OP_reg12]
    1477              
    1478              $C$DW$82        .dwtag  DW_TAG_formal_parameter
    1479                      .dwattr $C$DW$82, DW_AT_name("gpioNumber")
    1480                      .dwattr $C$DW$82, DW_AT_TI_symbol_name("_gpioNumber")
    1481                      .dwattr $C$DW$82, DW_AT_type(*$C$DW$T$24)
    1482                      .dwattr $C$DW$82, DW_AT_location[DW_OP_reg0]
    1483              
    1484              
    1485              ;***************************************************************
    1486              ;* FNAME: _DRV8353_setGpioNumber        FR SIZE:   0           *
    1487              ;*                                                             *
    1488              ;* FUNCTION ENVIRONMENT                                        *
    1489              ;*                                                             *
    1490              ;* FUNCTION PROPERTIES                                         *
    1491              ;*                            0 Parameter,  0 Auto,  0 SOE     *
    1492              ;***************************************************************
    1493              
    1494              _DRV8353_setGpioNumber:
    1495              ;* AR4   assigned to _handle
    1496              $C$DW$83        .dwtag  DW_TAG_variable
    1497                      .dwattr $C$DW$83, DW_AT_name("handle")
    1498                      .dwattr $C$DW$83, DW_AT_TI_symbol_name("_handle")
    1499                      .dwattr $C$DW$83, DW_AT_type(*$C$DW$T$115)
TMS320C2000 Assembler PC v15.12.3 Wed Jul 04 16:10:52 2018

Tools Copyright (c) 1996-2015 Texas Instruments Incorporated
C:\Users\a0393005\AppData\Local\Temp\1506410                         PAGE   30

    1500                      .dwattr $C$DW$83, DW_AT_location[DW_OP_reg12]
    1501              
    1502              ;* AL    assigned to _gpioNumber
    1503              $C$DW$84        .dwtag  DW_TAG_variable
    1504                      .dwattr $C$DW$84, DW_AT_name("gpioNumber")
    1505                      .dwattr $C$DW$84, DW_AT_TI_symbol_name("_gpioNumber")
    1506                      .dwattr $C$DW$84, DW_AT_type(*$C$DW$T$83)
    1507                      .dwattr $C$DW$84, DW_AT_location[DW_OP_reg0]
    1508              
    1509                      .dwcfi  cfa_offset, -2
    1510                      .dwcfi  save_reg_to_mem, 26, 0
    1511                      .dwpsn  file "C:/ti/motorware_drv8353/motorware_1_01_00_18/sw/drivers/drvic/drv8353/src/32b/f28x/f280
    1512 000002ab 96E4          MOV       *+XAR4[4],AL          ; [CPU_] |475| 
    1513              $C$DW$85        .dwtag  DW_TAG_TI_branch
    1514                      .dwattr $C$DW$85, DW_AT_low_pc(0x00)
    1515                      .dwattr $C$DW$85, DW_AT_TI_return
    1516              
    1517 000002ac 0006          LRETR     ; [CPU_] 
    1518                      ; return occurs ; [] 
    1519                      .dwattr $C$DW$80, DW_AT_TI_end_file("C:/ti/motorware_drv8353/motorware_1_01_00_18/sw/drivers/drvic/dr
    1520                      .dwattr $C$DW$80, DW_AT_TI_end_line(0x1de)
    1521                      .dwattr $C$DW$80, DW_AT_TI_end_column(0x01)
    1522                      .dwendentry
    1523                      .dwendtag $C$DW$80
    1524              
    1525 000002ad               .sect   ".text"
    1526                      .clink
    1527                      .global _DRV8353_setGpioHandle
    1528              
    1529              $C$DW$86        .dwtag  DW_TAG_subprogram
    1530                      .dwattr $C$DW$86, DW_AT_name("DRV8353_setGpioHandle")
    1531                      .dwattr $C$DW$86, DW_AT_low_pc(_DRV8353_setGpioHandle)
    1532                      .dwattr $C$DW$86, DW_AT_high_pc(0x00)
    1533                      .dwattr $C$DW$86, DW_AT_TI_symbol_name("_DRV8353_setGpioHandle")
    1534                      .dwattr $C$DW$86, DW_AT_external
    1535                      .dwattr $C$DW$86, DW_AT_TI_begin_file("C:/ti/motorware_drv8353/motorware_1_01_00_18/sw/drivers/drvic/
    1536                      .dwattr $C$DW$86, DW_AT_TI_begin_line(0x1cb)
    1537                      .dwattr $C$DW$86, DW_AT_TI_begin_column(0x06)
    1538                      .dwattr $C$DW$86, DW_AT_TI_max_frame_size(-2)
    1539                      .dwpsn  file "C:/ti/motorware_drv8353/motorware_1_01_00_18/sw/drivers/drvic/drv8353/src/32b/f28x/f280
    1540              
    1541                      .dwfde $C$DW$CIE, _DRV8353_setGpioHandle
    1542              $C$DW$87        .dwtag  DW_TAG_formal_parameter
    1543                      .dwattr $C$DW$87, DW_AT_name("handle")
    1544                      .dwattr $C$DW$87, DW_AT_TI_symbol_name("_handle")
    1545                      .dwattr $C$DW$87, DW_AT_type(*$C$DW$T$85)
    1546                      .dwattr $C$DW$87, DW_AT_location[DW_OP_reg12]
    1547              
    1548              $C$DW$88        .dwtag  DW_TAG_formal_parameter
    1549                      .dwattr $C$DW$88, DW_AT_name("gpioHandle")
    1550                      .dwattr $C$DW$88, DW_AT_TI_symbol_name("_gpioHandle")
    1551                      .dwattr $C$DW$88, DW_AT_type(*$C$DW$T$22)
    1552                      .dwattr $C$DW$88, DW_AT_location[DW_OP_reg14]
    1553              
    1554              
TMS320C2000 Assembler PC v15.12.3 Wed Jul 04 16:10:52 2018

Tools Copyright (c) 1996-2015 Texas Instruments Incorporated
C:\Users\a0393005\AppData\Local\Temp\1506410                         PAGE   31

    1555              ;***************************************************************
    1556              ;* FNAME: _DRV8353_setGpioHandle        FR SIZE:   0           *
    1557              ;*                                                             *
    1558              ;* FUNCTION ENVIRONMENT                                        *
    1559              ;*                                                             *
    1560              ;* FUNCTION PROPERTIES                                         *
    1561              ;*                            0 Parameter,  0 Auto,  0 SOE     *
    1562              ;***************************************************************
    1563              
    1564              _DRV8353_setGpioHandle:
    1565              ;* AR4   assigned to _handle
    1566              $C$DW$89        .dwtag  DW_TAG_variable
    1567                      .dwattr $C$DW$89, DW_AT_name("handle")
    1568                      .dwattr $C$DW$89, DW_AT_TI_symbol_name("_handle")
    1569                      .dwattr $C$DW$89, DW_AT_type(*$C$DW$T$115)
    1570                      .dwattr $C$DW$89, DW_AT_location[DW_OP_reg12]
    1571              
    1572              ;* AR5   assigned to _gpioHandle
    1573              $C$DW$90        .dwtag  DW_TAG_variable
    1574                      .dwattr $C$DW$90, DW_AT_name("gpioHandle")
    1575                      .dwattr $C$DW$90, DW_AT_TI_symbol_name("_gpioHandle")
    1576                      .dwattr $C$DW$90, DW_AT_type(*$C$DW$T$126)
    1577                      .dwattr $C$DW$90, DW_AT_location[DW_OP_reg14]
    1578              
    1579                      .dwcfi  cfa_offset, -2
    1580                      .dwcfi  save_reg_to_mem, 26, 0
    1581                      .dwpsn  file "C:/ti/motorware_drv8353/motorware_1_01_00_18/sw/drivers/drvic/drv8353/src/32b/f28x/f280
    1582 000002ad A0D4          MOVL      *+XAR4[2],XAR5        ; [CPU_] |464| 
    1583              $C$DW$91        .dwtag  DW_TAG_TI_branch
    1584                      .dwattr $C$DW$91, DW_AT_low_pc(0x00)
    1585                      .dwattr $C$DW$91, DW_AT_TI_return
    1586              
    1587 000002ae 0006          LRETR     ; [CPU_] 
    1588                      ; return occurs ; [] 
    1589                      .dwattr $C$DW$86, DW_AT_TI_end_file("C:/ti/motorware_drv8353/motorware_1_01_00_18/sw/drivers/drvic/dr
    1590                      .dwattr $C$DW$86, DW_AT_TI_end_line(0x1d3)
    1591                      .dwattr $C$DW$86, DW_AT_TI_end_column(0x01)
    1592                      .dwendentry
    1593                      .dwendtag $C$DW$86
    1594              
    1595 000002af               .sect   ".text"
    1596                      .clink
    1597                      .global _DRV8353_readData
    1598              
    1599              $C$DW$92        .dwtag  DW_TAG_subprogram
    1600                      .dwattr $C$DW$92, DW_AT_name("DRV8353_readData")
    1601                      .dwattr $C$DW$92, DW_AT_low_pc(_DRV8353_readData)
    1602                      .dwattr $C$DW$92, DW_AT_high_pc(0x00)
    1603                      .dwattr $C$DW$92, DW_AT_TI_symbol_name("_DRV8353_readData")
    1604                      .dwattr $C$DW$92, DW_AT_external
    1605                      .dwattr $C$DW$92, DW_AT_TI_begin_file("C:/ti/motorware_drv8353/motorware_1_01_00_18/sw/drivers/drvic/
    1606                      .dwattr $C$DW$92, DW_AT_TI_begin_line(0x4d4)
    1607                      .dwattr $C$DW$92, DW_AT_TI_begin_column(0x06)
    1608                      .dwattr $C$DW$92, DW_AT_TI_max_frame_size(-6)
    1609                      .dwpsn  file "C:/ti/motorware_drv8353/motorware_1_01_00_18/sw/drivers/drvic/drv8353/src/32b/f28x/f280
TMS320C2000 Assembler PC v15.12.3 Wed Jul 04 16:10:52 2018

Tools Copyright (c) 1996-2015 Texas Instruments Incorporated
C:\Users\a0393005\AppData\Local\Temp\1506410                         PAGE   32

    1610              
    1611                      .dwfde $C$DW$CIE, _DRV8353_readData
    1612              $C$DW$93        .dwtag  DW_TAG_formal_parameter
    1613                      .dwattr $C$DW$93, DW_AT_name("handle")
    1614                      .dwattr $C$DW$93, DW_AT_TI_symbol_name("_handle")
    1615                      .dwattr $C$DW$93, DW_AT_type(*$C$DW$T$85)
    1616                      .dwattr $C$DW$93, DW_AT_location[DW_OP_reg12]
    1617              
    1618              $C$DW$94        .dwtag  DW_TAG_formal_parameter
    1619                      .dwattr $C$DW$94, DW_AT_name("Spi_8353_Vars")
    1620                      .dwattr $C$DW$94, DW_AT_TI_symbol_name("_Spi_8353_Vars")
    1621                      .dwattr $C$DW$94, DW_AT_type(*$C$DW$T$122)
    1622                      .dwattr $C$DW$94, DW_AT_location[DW_OP_reg14]
    1623              
    1624              
    1625              ;***************************************************************
    1626              ;* FNAME: _DRV8353_readData             FR SIZE:   4           *
    1627              ;*                                                             *
    1628              ;* FUNCTION ENVIRONMENT                                        *
    1629              ;*                                                             *
    1630              ;* FUNCTION PROPERTIES                                         *
    1631              ;*                            0 Parameter,  0 Auto,  4 SOE     *
    1632              ;***************************************************************
    1633              
    1634              _DRV8353_readData:
    1635              ;* AR2   assigned to _handle
    1636              $C$DW$95        .dwtag  DW_TAG_variable
    1637                      .dwattr $C$DW$95, DW_AT_name("handle")
    1638                      .dwattr $C$DW$95, DW_AT_TI_symbol_name("_handle")
    1639                      .dwattr $C$DW$95, DW_AT_type(*$C$DW$T$115)
    1640                      .dwattr $C$DW$95, DW_AT_location[DW_OP_reg8]
    1641              
    1642              ;* AR1   assigned to _Spi_8353_Vars
    1643              $C$DW$96        .dwtag  DW_TAG_variable
    1644                      .dwattr $C$DW$96, DW_AT_name("Spi_8353_Vars")
    1645                      .dwattr $C$DW$96, DW_AT_TI_symbol_name("_Spi_8353_Vars")
    1646                      .dwattr $C$DW$96, DW_AT_type(*$C$DW$T$123)
    1647                      .dwattr $C$DW$96, DW_AT_location[DW_OP_reg6]
    1648              
    1649              ;* AL    assigned to _drvDataNew
    1650              $C$DW$97        .dwtag  DW_TAG_variable
    1651                      .dwattr $C$DW$97, DW_AT_name("drvDataNew")
    1652                      .dwattr $C$DW$97, DW_AT_TI_symbol_name("_drvDataNew")
    1653                      .dwattr $C$DW$97, DW_AT_type(*$C$DW$T$69)
    1654                      .dwattr $C$DW$97, DW_AT_location[DW_OP_reg0]
    1655              
    1656              ;* AL    assigned to _drvDataNew
    1657              $C$DW$98        .dwtag  DW_TAG_variable
    1658                      .dwattr $C$DW$98, DW_AT_name("drvDataNew")
    1659                      .dwattr $C$DW$98, DW_AT_TI_symbol_name("_drvDataNew")
    1660                      .dwattr $C$DW$98, DW_AT_type(*$C$DW$T$69)
    1661                      .dwattr $C$DW$98, DW_AT_location[DW_OP_reg0]
    1662              
    1663              ;* AL    assigned to _drvDataNew
    1664              $C$DW$99        .dwtag  DW_TAG_variable
TMS320C2000 Assembler PC v15.12.3 Wed Jul 04 16:10:52 2018

Tools Copyright (c) 1996-2015 Texas Instruments Incorporated
C:\Users\a0393005\AppData\Local\Temp\1506410                         PAGE   33

    1665                      .dwattr $C$DW$99, DW_AT_name("drvDataNew")
    1666                      .dwattr $C$DW$99, DW_AT_TI_symbol_name("_drvDataNew")
    1667                      .dwattr $C$DW$99, DW_AT_type(*$C$DW$T$69)
    1668                      .dwattr $C$DW$99, DW_AT_location[DW_OP_reg0]
    1669              
    1670              ;* AL    assigned to _drvDataNew
    1671              $C$DW$100       .dwtag  DW_TAG_variable
    1672                      .dwattr $C$DW$100, DW_AT_name("drvDataNew")
    1673                      .dwattr $C$DW$100, DW_AT_TI_symbol_name("_drvDataNew")
    1674                      .dwattr $C$DW$100, DW_AT_type(*$C$DW$T$69)
    1675                      .dwattr $C$DW$100, DW_AT_location[DW_OP_reg0]
    1676              
    1677              ;* AL    assigned to _drvDataNew
    1678              $C$DW$101       .dwtag  DW_TAG_variable
    1679                      .dwattr $C$DW$101, DW_AT_name("drvDataNew")
    1680                      .dwattr $C$DW$101, DW_AT_TI_symbol_name("_drvDataNew")
    1681                      .dwattr $C$DW$101, DW_AT_type(*$C$DW$T$69)
    1682                      .dwattr $C$DW$101, DW_AT_location[DW_OP_reg0]
    1683              
    1684              ;* AL    assigned to _drvDataNew
    1685              $C$DW$102       .dwtag  DW_TAG_variable
    1686                      .dwattr $C$DW$102, DW_AT_name("drvDataNew")
    1687                      .dwattr $C$DW$102, DW_AT_TI_symbol_name("_drvDataNew")
    1688                      .dwattr $C$DW$102, DW_AT_type(*$C$DW$T$69)
    1689                      .dwattr $C$DW$102, DW_AT_location[DW_OP_reg0]
    1690              
    1691              ;* AL    assigned to _drvDataNew
    1692              $C$DW$103       .dwtag  DW_TAG_variable
    1693                      .dwattr $C$DW$103, DW_AT_name("drvDataNew")
    1694                      .dwattr $C$DW$103, DW_AT_TI_symbol_name("_drvDataNew")
    1695                      .dwattr $C$DW$103, DW_AT_type(*$C$DW$T$69)
    1696                      .dwattr $C$DW$103, DW_AT_location[DW_OP_reg0]
    1697              
    1698              ;* AL    assigned to _drvDataNew
    1699              $C$DW$104       .dwtag  DW_TAG_variable
    1700                      .dwattr $C$DW$104, DW_AT_name("drvDataNew")
    1701                      .dwattr $C$DW$104, DW_AT_TI_symbol_name("_drvDataNew")
    1702                      .dwattr $C$DW$104, DW_AT_type(*$C$DW$T$69)
    1703                      .dwattr $C$DW$104, DW_AT_location[DW_OP_reg0]
    1704              
    1705              ;* AL    assigned to _drvDataNew
    1706              $C$DW$105       .dwtag  DW_TAG_variable
    1707                      .dwattr $C$DW$105, DW_AT_name("drvDataNew")
    1708                      .dwattr $C$DW$105, DW_AT_TI_symbol_name("_drvDataNew")
    1709                      .dwattr $C$DW$105, DW_AT_type(*$C$DW$T$69)
    1710                      .dwattr $C$DW$105, DW_AT_location[DW_OP_reg0]
    1711              
    1712                      .dwcfi  cfa_offset, -2
    1713                      .dwcfi  save_reg_to_mem, 26, 0
    1714 000002af B2BD          MOVL      *SP++,XAR1            ; [CPU_] 
    1715                      .dwcfi  save_reg_to_mem, 7, 2
    1716                      .dwcfi  cfa_offset, -4
    1717 000002b0 8BA5          MOVL      XAR1,XAR5             ; [CPU_] |1237| 
    1718                      .dwpsn  file "C:/ti/motorware_drv8353/motorware_1_01_00_18/sw/drivers/drvic/drv8353/src/32b/f28x/f280
    1719 000002b1 D041          MOVB      XAR0,#65              ; [CPU_] |1241| 
TMS320C2000 Assembler PC v15.12.3 Wed Jul 04 16:10:52 2018

Tools Copyright (c) 1996-2015 Texas Instruments Incorporated
C:\Users\a0393005\AppData\Local\Temp\1506410                         PAGE   34

    1720 000002b2 AABD          MOVL      *SP++,XAR2            ; [CPU_] 
    1721                      .dwcfi  save_reg_to_mem, 9, 4
    1722                      .dwcfi  cfa_offset, -6
    1723                      .dwpsn  file "C:/ti/motorware_drv8353/motorware_1_01_00_18/sw/drivers/drvic/drv8353/src/32b/f28x/f280
    1724 000002b3 86A4          MOVL      XAR2,XAR4             ; [CPU_] |1237| 
    1725                      .dwpsn  file "C:/ti/motorware_drv8353/motorware_1_01_00_18/sw/drivers/drvic/drv8353/src/32b/f28x/f280
    1726 000002b4 9291          MOV       AL,*+XAR1[AR0]        ; [CPU_] |1241| 
    1727 000002b5 FFE1          B         $C$L9,EQ              ; [CPU_] |1241| 
         000002b6 014A 
    1728                      ; branchcc occurs ; [] |1241| 
    1729                      .dwpsn  file "C:/ti/motorware_drv8353/motorware_1_01_00_18/sw/drivers/drvic/drv8353/src/32b/f28x/f280
    1730 000002b7 9A00          MOVB      AL,#0                 ; [CPU_] |1246| 
    1731              $C$DW$106       .dwtag  DW_TAG_TI_branch
    1732                      .dwattr $C$DW$106, DW_AT_low_pc(0x00)
    1733                      .dwattr $C$DW$106, DW_AT_name("_DRV8353_readSpi")
    1734                      .dwattr $C$DW$106, DW_AT_TI_call
    1735              
    1736 000002b8 7640'         LCR       #_DRV8353_readSpi     ; [CPU_] |1246| 
         000002b9 010F 
    1737                      ; call occurs [#_DRV8353_readSpi] ; [] |1246| 
    1738                      .dwpsn  file "C:/ti/motorware_drv8353/motorware_1_01_00_18/sw/drivers/drvic/drv8353/src/32b/f28x/f280
    1739 000002ba CDA9          AND       AH,AL,#0x0001         ; [CPU_] |1247| 
         000002bb 0001 
    1740 000002bc 97C1          MOV       *+XAR1[0],AH          ; [CPU_] |1247| 
    1741                      .dwpsn  file "C:/ti/motorware_drv8353/motorware_1_01_00_18/sw/drivers/drvic/drv8353/src/32b/f28x/f280
    1742 000002bd 93A9          MOV       AH,AL                 ; [CPU_] |1248| 
    1743 000002be FFD0          LSR       AH,1                  ; [CPU_] |1248| 
    1744 000002bf 9101          ANDB      AH,#0x01              ; [CPU_] |1248| 
    1745 000002c0 97C9          MOV       *+XAR1[1],AH          ; [CPU_] |1248| 
    1746                      .dwpsn  file "C:/ti/motorware_drv8353/motorware_1_01_00_18/sw/drivers/drvic/drv8353/src/32b/f28x/f280
    1747 000002c1 D008          MOVB      XAR0,#8               ; [CPU_] |1255| 
    1748                      .dwpsn  file "C:/ti/motorware_drv8353/motorware_1_01_00_18/sw/drivers/drvic/drv8353/src/32b/f28x/f280
    1749 000002c2 93A9          MOV       AH,AL                 ; [CPU_] |1249| 
    1750 000002c3 FFD1          LSR       AH,2                  ; [CPU_] |1249| 
    1751 000002c4 9101          ANDB      AH,#0x01              ; [CPU_] |1249| 
    1752                      .dwpsn  file "C:/ti/motorware_drv8353/motorware_1_01_00_18/sw/drivers/drvic/drv8353/src/32b/f28x/f280
    1753 000002c5 8AA2          MOVL      XAR4,XAR2             ; [CPU_] |1261| 
    1754                      .dwpsn  file "C:/ti/motorware_drv8353/motorware_1_01_00_18/sw/drivers/drvic/drv8353/src/32b/f28x/f280
    1755 000002c6 97D1          MOV       *+XAR1[2],AH          ; [CPU_] |1249| 
    1756                      .dwpsn  file "C:/ti/motorware_drv8353/motorware_1_01_00_18/sw/drivers/drvic/drv8353/src/32b/f28x/f280
    1757 000002c7 93A9          MOV       AH,AL                 ; [CPU_] |1250| 
    1758 000002c8 FFD2          LSR       AH,3                  ; [CPU_] |1250| 
    1759 000002c9 9101          ANDB      AH,#0x01              ; [CPU_] |1250| 
    1760 000002ca 97D9          MOV       *+XAR1[3],AH          ; [CPU_] |1250| 
    1761                      .dwpsn  file "C:/ti/motorware_drv8353/motorware_1_01_00_18/sw/drivers/drvic/drv8353/src/32b/f28x/f280
    1762 000002cb 93A9          MOV       AH,AL                 ; [CPU_] |1251| 
    1763 000002cc FFD3          LSR       AH,4                  ; [CPU_] |1251| 
    1764 000002cd 9101          ANDB      AH,#0x01              ; [CPU_] |1251| 
    1765 000002ce 97E1          MOV       *+XAR1[4],AH          ; [CPU_] |1251| 
    1766                      .dwpsn  file "C:/ti/motorware_drv8353/motorware_1_01_00_18/sw/drivers/drvic/drv8353/src/32b/f28x/f280
    1767 000002cf 93A9          MOV       AH,AL                 ; [CPU_] |1252| 
    1768 000002d0 FFD4          LSR       AH,5                  ; [CPU_] |1252| 
    1769 000002d1 9101          ANDB      AH,#0x01              ; [CPU_] |1252| 
    1770 000002d2 97E9          MOV       *+XAR1[5],AH          ; [CPU_] |1252| 
    1771                      .dwpsn  file "C:/ti/motorware_drv8353/motorware_1_01_00_18/sw/drivers/drvic/drv8353/src/32b/f28x/f280
TMS320C2000 Assembler PC v15.12.3 Wed Jul 04 16:10:52 2018

Tools Copyright (c) 1996-2015 Texas Instruments Incorporated
C:\Users\a0393005\AppData\Local\Temp\1506410                         PAGE   35

    1772 000002d3 93A9          MOV       AH,AL                 ; [CPU_] |1253| 
    1773 000002d4 FFD5          LSR       AH,6                  ; [CPU_] |1253| 
    1774 000002d5 9101          ANDB      AH,#0x01              ; [CPU_] |1253| 
    1775 000002d6 97F1          MOV       *+XAR1[6],AH          ; [CPU_] |1253| 
    1776                      .dwpsn  file "C:/ti/motorware_drv8353/motorware_1_01_00_18/sw/drivers/drvic/drv8353/src/32b/f28x/f280
    1777 000002d7 93A9          MOV       AH,AL                 ; [CPU_] |1254| 
    1778 000002d8 FFD6          LSR       AH,7                  ; [CPU_] |1254| 
    1779 000002d9 9101          ANDB      AH,#0x01              ; [CPU_] |1254| 
    1780 000002da 97F9          MOV       *+XAR1[7],AH          ; [CPU_] |1254| 
    1781                      .dwpsn  file "C:/ti/motorware_drv8353/motorware_1_01_00_18/sw/drivers/drvic/drv8353/src/32b/f28x/f280
    1782 000002db 93A9          MOV       AH,AL                 ; [CPU_] |1255| 
    1783 000002dc FFD7          LSR       AH,8                  ; [CPU_] |1255| 
    1784 000002dd 9101          ANDB      AH,#0x01              ; [CPU_] |1255| 
    1785 000002de 9791          MOV       *+XAR1[AR0],AH        ; [CPU_] |1255| 
    1786                      .dwpsn  file "C:/ti/motorware_drv8353/motorware_1_01_00_18/sw/drivers/drvic/drv8353/src/32b/f28x/f280
    1787 000002df 93A9          MOV       AH,AL                 ; [CPU_] |1256| 
    1788 000002e0 D009          MOVB      XAR0,#9               ; [CPU_] |1256| 
    1789 000002e1 FFD8          LSR       AH,9                  ; [CPU_] |1256| 
    1790 000002e2 9101          ANDB      AH,#0x01              ; [CPU_] |1256| 
    1791                      .dwpsn  file "C:/ti/motorware_drv8353/motorware_1_01_00_18/sw/drivers/drvic/drv8353/src/32b/f28x/f280
    1792 000002e3 FFC9          LSR       AL,10                 ; [CPU_] |1257| 
    1793 000002e4 9001          ANDB      AL,#0x01              ; [CPU_] |1257| 
    1794                      .dwpsn  file "C:/ti/motorware_drv8353/motorware_1_01_00_18/sw/drivers/drvic/drv8353/src/32b/f28x/f280
    1795 000002e5 9791          MOV       *+XAR1[AR0],AH        ; [CPU_] |1256| 
    1796                      .dwpsn  file "C:/ti/motorware_drv8353/motorware_1_01_00_18/sw/drivers/drvic/drv8353/src/32b/f28x/f280
    1797 000002e6 D00A          MOVB      XAR0,#10              ; [CPU_] |1257| 
    1798 000002e7 9691          MOV       *+XAR1[AR0],AL        ; [CPU_] |1257| 
    1799                      .dwpsn  file "C:/ti/motorware_drv8353/motorware_1_01_00_18/sw/drivers/drvic/drv8353/src/32b/f28x/f280
    1800 000002e8 28A9          MOV       AL,#2048              ; [CPU_] |1261| 
         000002e9 0800 
    1801              $C$DW$107       .dwtag  DW_TAG_TI_branch
    1802                      .dwattr $C$DW$107, DW_AT_low_pc(0x00)
    1803                      .dwattr $C$DW$107, DW_AT_name("_DRV8353_readSpi")
    1804                      .dwattr $C$DW$107, DW_AT_TI_call
    1805              
    1806 000002ea 7640'         LCR       #_DRV8353_readSpi     ; [CPU_] |1261| 
         000002eb 010F 
    1807                      ; call occurs [#_DRV8353_readSpi] ; [] |1261| 
    1808                      .dwpsn  file "C:/ti/motorware_drv8353/motorware_1_01_00_18/sw/drivers/drvic/drv8353/src/32b/f28x/f280
    1809 000002ec D00B          MOVB      XAR0,#11              ; [CPU_] |1262| 
    1810 000002ed CDA9          AND       AH,AL,#0x0001         ; [CPU_] |1262| 
         000002ee 0001 
    1811 000002ef 9791          MOV       *+XAR1[AR0],AH        ; [CPU_] |1262| 
    1812                      .dwpsn  file "C:/ti/motorware_drv8353/motorware_1_01_00_18/sw/drivers/drvic/drv8353/src/32b/f28x/f280
    1813 000002f0 D00C          MOVB      XAR0,#12              ; [CPU_] |1263| 
    1814 000002f1 93A9          MOV       AH,AL                 ; [CPU_] |1263| 
    1815 000002f2 FFD0          LSR       AH,1                  ; [CPU_] |1263| 
    1816 000002f3 9101          ANDB      AH,#0x01              ; [CPU_] |1263| 
    1817 000002f4 9791          MOV       *+XAR1[AR0],AH        ; [CPU_] |1263| 
    1818                      .dwpsn  file "C:/ti/motorware_drv8353/motorware_1_01_00_18/sw/drivers/drvic/drv8353/src/32b/f28x/f280
    1819 000002f5 93A9          MOV       AH,AL                 ; [CPU_] |1264| 
    1820 000002f6 D00D          MOVB      XAR0,#13              ; [CPU_] |1264| 
    1821 000002f7 FFD1          LSR       AH,2                  ; [CPU_] |1264| 
    1822 000002f8 9101          ANDB      AH,#0x01              ; [CPU_] |1264| 
    1823                      .dwpsn  file "C:/ti/motorware_drv8353/motorware_1_01_00_18/sw/drivers/drvic/drv8353/src/32b/f28x/f280
TMS320C2000 Assembler PC v15.12.3 Wed Jul 04 16:10:52 2018

Tools Copyright (c) 1996-2015 Texas Instruments Incorporated
C:\Users\a0393005\AppData\Local\Temp\1506410                         PAGE   36

    1824 000002f9 8AA2          MOVL      XAR4,XAR2             ; [CPU_] |1276| 
    1825                      .dwpsn  file "C:/ti/motorware_drv8353/motorware_1_01_00_18/sw/drivers/drvic/drv8353/src/32b/f28x/f280
    1826 000002fa 9791          MOV       *+XAR1[AR0],AH        ; [CPU_] |1264| 
    1827                      .dwpsn  file "C:/ti/motorware_drv8353/motorware_1_01_00_18/sw/drivers/drvic/drv8353/src/32b/f28x/f280
    1828 000002fb D00E          MOVB      XAR0,#14              ; [CPU_] |1265| 
    1829 000002fc 93A9          MOV       AH,AL                 ; [CPU_] |1265| 
    1830 000002fd FFD2          LSR       AH,3                  ; [CPU_] |1265| 
    1831 000002fe 9101          ANDB      AH,#0x01              ; [CPU_] |1265| 
    1832 000002ff 9791          MOV       *+XAR1[AR0],AH        ; [CPU_] |1265| 
    1833                      .dwpsn  file "C:/ti/motorware_drv8353/motorware_1_01_00_18/sw/drivers/drvic/drv8353/src/32b/f28x/f280
    1834 00000300 D00F          MOVB      XAR0,#15              ; [CPU_] |1266| 
    1835 00000301 93A9          MOV       AH,AL                 ; [CPU_] |1266| 
    1836 00000302 FFD3          LSR       AH,4                  ; [CPU_] |1266| 
    1837 00000303 9101          ANDB      AH,#0x01              ; [CPU_] |1266| 
    1838 00000304 9791          MOV       *+XAR1[AR0],AH        ; [CPU_] |1266| 
    1839                      .dwpsn  file "C:/ti/motorware_drv8353/motorware_1_01_00_18/sw/drivers/drvic/drv8353/src/32b/f28x/f280
    1840 00000305 D010          MOVB      XAR0,#16              ; [CPU_] |1267| 
    1841 00000306 93A9          MOV       AH,AL                 ; [CPU_] |1267| 
    1842 00000307 FFD4          LSR       AH,5                  ; [CPU_] |1267| 
    1843 00000308 9101          ANDB      AH,#0x01              ; [CPU_] |1267| 
    1844 00000309 9791          MOV       *+XAR1[AR0],AH        ; [CPU_] |1267| 
    1845                      .dwpsn  file "C:/ti/motorware_drv8353/motorware_1_01_00_18/sw/drivers/drvic/drv8353/src/32b/f28x/f280
    1846 0000030a D011          MOVB      XAR0,#17              ; [CPU_] |1268| 
    1847 0000030b 93A9          MOV       AH,AL                 ; [CPU_] |1268| 
    1848 0000030c FFD5          LSR       AH,6                  ; [CPU_] |1268| 
    1849 0000030d 9101          ANDB      AH,#0x01              ; [CPU_] |1268| 
    1850 0000030e 9791          MOV       *+XAR1[AR0],AH        ; [CPU_] |1268| 
    1851                      .dwpsn  file "C:/ti/motorware_drv8353/motorware_1_01_00_18/sw/drivers/drvic/drv8353/src/32b/f28x/f280
    1852 0000030f D012          MOVB      XAR0,#18              ; [CPU_] |1269| 
    1853 00000310 93A9          MOV       AH,AL                 ; [CPU_] |1269| 
    1854 00000311 FFD6          LSR       AH,7                  ; [CPU_] |1269| 
    1855 00000312 9101          ANDB      AH,#0x01              ; [CPU_] |1269| 
    1856 00000313 9791          MOV       *+XAR1[AR0],AH        ; [CPU_] |1269| 
    1857                      .dwpsn  file "C:/ti/motorware_drv8353/motorware_1_01_00_18/sw/drivers/drvic/drv8353/src/32b/f28x/f280
    1858 00000314 D013          MOVB      XAR0,#19              ; [CPU_] |1270| 
    1859 00000315 93A9          MOV       AH,AL                 ; [CPU_] |1270| 
    1860 00000316 FFD7          LSR       AH,8                  ; [CPU_] |1270| 
    1861 00000317 9101          ANDB      AH,#0x01              ; [CPU_] |1270| 
    1862 00000318 9791          MOV       *+XAR1[AR0],AH        ; [CPU_] |1270| 
    1863                      .dwpsn  file "C:/ti/motorware_drv8353/motorware_1_01_00_18/sw/drivers/drvic/drv8353/src/32b/f28x/f280
    1864 00000319 93A9          MOV       AH,AL                 ; [CPU_] |1271| 
    1865 0000031a D014          MOVB      XAR0,#20              ; [CPU_] |1271| 
    1866 0000031b FFD8          LSR       AH,9                  ; [CPU_] |1271| 
    1867 0000031c 9101          ANDB      AH,#0x01              ; [CPU_] |1271| 
    1868                      .dwpsn  file "C:/ti/motorware_drv8353/motorware_1_01_00_18/sw/drivers/drvic/drv8353/src/32b/f28x/f280
    1869 0000031d FFC9          LSR       AL,10                 ; [CPU_] |1272| 
    1870 0000031e 9001          ANDB      AL,#0x01              ; [CPU_] |1272| 
    1871                      .dwpsn  file "C:/ti/motorware_drv8353/motorware_1_01_00_18/sw/drivers/drvic/drv8353/src/32b/f28x/f280
    1872 0000031f 9791          MOV       *+XAR1[AR0],AH        ; [CPU_] |1271| 
    1873                      .dwpsn  file "C:/ti/motorware_drv8353/motorware_1_01_00_18/sw/drivers/drvic/drv8353/src/32b/f28x/f280
    1874 00000320 D015          MOVB      XAR0,#21              ; [CPU_] |1272| 
    1875 00000321 9691          MOV       *+XAR1[AR0],AL        ; [CPU_] |1272| 
    1876                      .dwpsn  file "C:/ti/motorware_drv8353/motorware_1_01_00_18/sw/drivers/drvic/drv8353/src/32b/f28x/f280
    1877 00000322 28A9          MOV       AL,#4096              ; [CPU_] |1276| 
         00000323 1000 
TMS320C2000 Assembler PC v15.12.3 Wed Jul 04 16:10:52 2018

Tools Copyright (c) 1996-2015 Texas Instruments Incorporated
C:\Users\a0393005\AppData\Local\Temp\1506410                         PAGE   37

    1878              $C$DW$108       .dwtag  DW_TAG_TI_branch
    1879                      .dwattr $C$DW$108, DW_AT_low_pc(0x00)
    1880                      .dwattr $C$DW$108, DW_AT_name("_DRV8353_readSpi")
    1881                      .dwattr $C$DW$108, DW_AT_TI_call
    1882              
    1883 00000324 7640'         LCR       #_DRV8353_readSpi     ; [CPU_] |1276| 
         00000325 010F 
    1884                      ; call occurs [#_DRV8353_readSpi] ; [] |1276| 
    1885                      .dwpsn  file "C:/ti/motorware_drv8353/motorware_1_01_00_18/sw/drivers/drvic/drv8353/src/32b/f28x/f280
    1886 00000326 D016          MOVB      XAR0,#22              ; [CPU_] |1277| 
    1887 00000327 CDA9          AND       AH,AL,#0x0001         ; [CPU_] |1277| 
         00000328 0001 
    1888 00000329 9791          MOV       *+XAR1[AR0],AH        ; [CPU_] |1277| 
    1889                      .dwpsn  file "C:/ti/motorware_drv8353/motorware_1_01_00_18/sw/drivers/drvic/drv8353/src/32b/f28x/f280
    1890 0000032a D017          MOVB      XAR0,#23              ; [CPU_] |1278| 
    1891 0000032b 93A9          MOV       AH,AL                 ; [CPU_] |1278| 
    1892 0000032c FFD0          LSR       AH,1                  ; [CPU_] |1278| 
    1893 0000032d 9101          ANDB      AH,#0x01              ; [CPU_] |1278| 
    1894 0000032e 9791          MOV       *+XAR1[AR0],AH        ; [CPU_] |1278| 
    1895                      .dwpsn  file "C:/ti/motorware_drv8353/motorware_1_01_00_18/sw/drivers/drvic/drv8353/src/32b/f28x/f280
    1896 0000032f 93A9          MOV       AH,AL                 ; [CPU_] |1279| 
    1897 00000330 D018          MOVB      XAR0,#24              ; [CPU_] |1279| 
    1898 00000331 FFD1          LSR       AH,2                  ; [CPU_] |1279| 
    1899                      .dwpsn  file "C:/ti/motorware_drv8353/motorware_1_01_00_18/sw/drivers/drvic/drv8353/src/32b/f28x/f280
    1900 00000332 8AA2          MOVL      XAR4,XAR2             ; [CPU_] |1290| 
    1901                      .dwpsn  file "C:/ti/motorware_drv8353/motorware_1_01_00_18/sw/drivers/drvic/drv8353/src/32b/f28x/f280
    1902 00000333 9101          ANDB      AH,#0x01              ; [CPU_] |1279| 
    1903 00000334 9791          MOV       *+XAR1[AR0],AH        ; [CPU_] |1279| 
    1904                      .dwpsn  file "C:/ti/motorware_drv8353/motorware_1_01_00_18/sw/drivers/drvic/drv8353/src/32b/f28x/f280
    1905 00000335 D019          MOVB      XAR0,#25              ; [CPU_] |1280| 
    1906 00000336 93A9          MOV       AH,AL                 ; [CPU_] |1280| 
    1907 00000337 FFD2          LSR       AH,3                  ; [CPU_] |1280| 
    1908 00000338 9101          ANDB      AH,#0x01              ; [CPU_] |1280| 
    1909 00000339 9791          MOV       *+XAR1[AR0],AH        ; [CPU_] |1280| 
    1910                      .dwpsn  file "C:/ti/motorware_drv8353/motorware_1_01_00_18/sw/drivers/drvic/drv8353/src/32b/f28x/f280
    1911 0000033a D01A          MOVB      XAR0,#26              ; [CPU_] |1281| 
    1912 0000033b 93A9          MOV       AH,AL                 ; [CPU_] |1281| 
    1913 0000033c FFD3          LSR       AH,4                  ; [CPU_] |1281| 
    1914 0000033d 9101          ANDB      AH,#0x01              ; [CPU_] |1281| 
    1915 0000033e 9791          MOV       *+XAR1[AR0],AH        ; [CPU_] |1281| 
    1916                      .dwpsn  file "C:/ti/motorware_drv8353/motorware_1_01_00_18/sw/drivers/drvic/drv8353/src/32b/f28x/f280
    1917 0000033f D01B          MOVB      XAR0,#27              ; [CPU_] |1282| 
    1918 00000340 CDA9          AND       AH,AL,#0x0060         ; [CPU_] |1282| 
         00000341 0060 
    1919 00000342 9791          MOV       *+XAR1[AR0],AH        ; [CPU_] |1282| 
    1920                      .dwpsn  file "C:/ti/motorware_drv8353/motorware_1_01_00_18/sw/drivers/drvic/drv8353/src/32b/f28x/f280
    1921 00000343 D01C          MOVB      XAR0,#28              ; [CPU_] |1283| 
    1922 00000344 93A9          MOV       AH,AL                 ; [CPU_] |1283| 
    1923 00000345 FFD6          LSR       AH,7                  ; [CPU_] |1283| 
    1924 00000346 9101          ANDB      AH,#0x01              ; [CPU_] |1283| 
    1925 00000347 9791          MOV       *+XAR1[AR0],AH        ; [CPU_] |1283| 
    1926                      .dwpsn  file "C:/ti/motorware_drv8353/motorware_1_01_00_18/sw/drivers/drvic/drv8353/src/32b/f28x/f280
    1927 00000348 D01D          MOVB      XAR0,#29              ; [CPU_] |1284| 
    1928 00000349 93A9          MOV       AH,AL                 ; [CPU_] |1284| 
    1929 0000034a FFD7          LSR       AH,8                  ; [CPU_] |1284| 
TMS320C2000 Assembler PC v15.12.3 Wed Jul 04 16:10:52 2018

Tools Copyright (c) 1996-2015 Texas Instruments Incorporated
C:\Users\a0393005\AppData\Local\Temp\1506410                         PAGE   38

    1930 0000034b 9101          ANDB      AH,#0x01              ; [CPU_] |1284| 
    1931 0000034c 9791          MOV       *+XAR1[AR0],AH        ; [CPU_] |1284| 
    1932                      .dwpsn  file "C:/ti/motorware_drv8353/motorware_1_01_00_18/sw/drivers/drvic/drv8353/src/32b/f28x/f280
    1933 0000034d 93A9          MOV       AH,AL                 ; [CPU_] |1285| 
    1934 0000034e D01E          MOVB      XAR0,#30              ; [CPU_] |1285| 
    1935 0000034f FFD8          LSR       AH,9                  ; [CPU_] |1285| 
    1936 00000350 9101          ANDB      AH,#0x01              ; [CPU_] |1285| 
    1937                      .dwpsn  file "C:/ti/motorware_drv8353/motorware_1_01_00_18/sw/drivers/drvic/drv8353/src/32b/f28x/f280
    1938 00000351 FFC9          LSR       AL,10                 ; [CPU_] |1286| 
    1939 00000352 9001          ANDB      AL,#0x01              ; [CPU_] |1286| 
    1940                      .dwpsn  file "C:/ti/motorware_drv8353/motorware_1_01_00_18/sw/drivers/drvic/drv8353/src/32b/f28x/f280
    1941 00000353 9791          MOV       *+XAR1[AR0],AH        ; [CPU_] |1285| 
    1942                      .dwpsn  file "C:/ti/motorware_drv8353/motorware_1_01_00_18/sw/drivers/drvic/drv8353/src/32b/f28x/f280
    1943 00000354 D01F          MOVB      XAR0,#31              ; [CPU_] |1286| 
    1944 00000355 9691          MOV       *+XAR1[AR0],AL        ; [CPU_] |1286| 
    1945                      .dwpsn  file "C:/ti/motorware_drv8353/motorware_1_01_00_18/sw/drivers/drvic/drv8353/src/32b/f28x/f280
    1946 00000356 28A9          MOV       AL,#6144              ; [CPU_] |1290| 
         00000357 1800 
    1947              $C$DW$109       .dwtag  DW_TAG_TI_branch
    1948                      .dwattr $C$DW$109, DW_AT_low_pc(0x00)
    1949                      .dwattr $C$DW$109, DW_AT_name("_DRV8353_readSpi")
    1950                      .dwattr $C$DW$109, DW_AT_TI_call
    1951              
    1952 00000358 7640'         LCR       #_DRV8353_readSpi     ; [CPU_] |1290| 
         00000359 010F 
    1953                      ; call occurs [#_DRV8353_readSpi] ; [] |1290| 
    1954                      .dwpsn  file "C:/ti/motorware_drv8353/motorware_1_01_00_18/sw/drivers/drvic/drv8353/src/32b/f28x/f280
    1955 0000035a D020          MOVB      XAR0,#32              ; [CPU_] |1291| 
    1956 0000035b CDA9          AND       AH,AL,#0x000f         ; [CPU_] |1291| 
         0000035c 000F 
    1957 0000035d 9791          MOV       *+XAR1[AR0],AH        ; [CPU_] |1291| 
    1958                      .dwpsn  file "C:/ti/motorware_drv8353/motorware_1_01_00_18/sw/drivers/drvic/drv8353/src/32b/f28x/f280
    1959 0000035e 8AA2          MOVL      XAR4,XAR2             ; [CPU_] |1297| 
    1960                      .dwpsn  file "C:/ti/motorware_drv8353/motorware_1_01_00_18/sw/drivers/drvic/drv8353/src/32b/f28x/f280
    1961 0000035f D021          MOVB      XAR0,#33              ; [CPU_] |1292| 
    1962 00000360 CDA9          AND       AH,AL,#0x00f0         ; [CPU_] |1292| 
         00000361 00F0 
    1963                      .dwpsn  file "C:/ti/motorware_drv8353/motorware_1_01_00_18/sw/drivers/drvic/drv8353/src/32b/f28x/f280
    1964 00000362 CCA9          AND       AL,AL,#0x0700         ; [CPU_] |1293| 
         00000363 0700 
    1965                      .dwpsn  file "C:/ti/motorware_drv8353/motorware_1_01_00_18/sw/drivers/drvic/drv8353/src/32b/f28x/f280
    1966 00000364 9791          MOV       *+XAR1[AR0],AH        ; [CPU_] |1292| 
    1967                      .dwpsn  file "C:/ti/motorware_drv8353/motorware_1_01_00_18/sw/drivers/drvic/drv8353/src/32b/f28x/f280
    1968 00000365 D022          MOVB      XAR0,#34              ; [CPU_] |1293| 
    1969 00000366 9691          MOV       *+XAR1[AR0],AL        ; [CPU_] |1293| 
    1970                      .dwpsn  file "C:/ti/motorware_drv8353/motorware_1_01_00_18/sw/drivers/drvic/drv8353/src/32b/f28x/f280
    1971 00000367 28A9          MOV       AL,#8192              ; [CPU_] |1297| 
         00000368 2000 
    1972              $C$DW$110       .dwtag  DW_TAG_TI_branch
    1973                      .dwattr $C$DW$110, DW_AT_low_pc(0x00)
    1974                      .dwattr $C$DW$110, DW_AT_name("_DRV8353_readSpi")
    1975                      .dwattr $C$DW$110, DW_AT_TI_call
    1976              
    1977 00000369 7640'         LCR       #_DRV8353_readSpi     ; [CPU_] |1297| 
         0000036a 010F 
TMS320C2000 Assembler PC v15.12.3 Wed Jul 04 16:10:52 2018

Tools Copyright (c) 1996-2015 Texas Instruments Incorporated
C:\Users\a0393005\AppData\Local\Temp\1506410                         PAGE   39

    1978                      ; call occurs [#_DRV8353_readSpi] ; [] |1297| 
    1979                      .dwpsn  file "C:/ti/motorware_drv8353/motorware_1_01_00_18/sw/drivers/drvic/drv8353/src/32b/f28x/f280
    1980 0000036b D023          MOVB      XAR0,#35              ; [CPU_] |1298| 
    1981 0000036c CDA9          AND       AH,AL,#0x000f         ; [CPU_] |1298| 
         0000036d 000F 
    1982 0000036e 9791          MOV       *+XAR1[AR0],AH        ; [CPU_] |1298| 
    1983                      .dwpsn  file "C:/ti/motorware_drv8353/motorware_1_01_00_18/sw/drivers/drvic/drv8353/src/32b/f28x/f280
    1984 0000036f D024          MOVB      XAR0,#36              ; [CPU_] |1299| 
    1985                      .dwpsn  file "C:/ti/motorware_drv8353/motorware_1_01_00_18/sw/drivers/drvic/drv8353/src/32b/f28x/f280
    1986 00000370 8AA2          MOVL      XAR4,XAR2             ; [CPU_] |1305| 
    1987                      .dwpsn  file "C:/ti/motorware_drv8353/motorware_1_01_00_18/sw/drivers/drvic/drv8353/src/32b/f28x/f280
    1988 00000371 CDA9          AND       AH,AL,#0x00f0         ; [CPU_] |1299| 
         00000372 00F0 
    1989 00000373 9791          MOV       *+XAR1[AR0],AH        ; [CPU_] |1299| 
    1990                      .dwpsn  file "C:/ti/motorware_drv8353/motorware_1_01_00_18/sw/drivers/drvic/drv8353/src/32b/f28x/f280
    1991 00000374 D025          MOVB      XAR0,#37              ; [CPU_] |1300| 
    1992 00000375 CDA9          AND       AH,AL,#0x0300         ; [CPU_] |1300| 
         00000376 0300 
    1993                      .dwpsn  file "C:/ti/motorware_drv8353/motorware_1_01_00_18/sw/drivers/drvic/drv8353/src/32b/f28x/f280
    1994 00000377 FFC9          LSR       AL,10                 ; [CPU_] |1301| 
    1995                      .dwpsn  file "C:/ti/motorware_drv8353/motorware_1_01_00_18/sw/drivers/drvic/drv8353/src/32b/f28x/f280
    1996 00000378 9791          MOV       *+XAR1[AR0],AH        ; [CPU_] |1300| 
    1997                      .dwpsn  file "C:/ti/motorware_drv8353/motorware_1_01_00_18/sw/drivers/drvic/drv8353/src/32b/f28x/f280
    1998 00000379 9001          ANDB      AL,#0x01              ; [CPU_] |1301| 
    1999 0000037a D026          MOVB      XAR0,#38              ; [CPU_] |1301| 
    2000 0000037b 9691          MOV       *+XAR1[AR0],AL        ; [CPU_] |1301| 
    2001                      .dwpsn  file "C:/ti/motorware_drv8353/motorware_1_01_00_18/sw/drivers/drvic/drv8353/src/32b/f28x/f280
    2002 0000037c 28A9          MOV       AL,#10240             ; [CPU_] |1305| 
         0000037d 2800 
    2003              $C$DW$111       .dwtag  DW_TAG_TI_branch
    2004                      .dwattr $C$DW$111, DW_AT_low_pc(0x00)
    2005                      .dwattr $C$DW$111, DW_AT_name("_DRV8353_readSpi")
    2006                      .dwattr $C$DW$111, DW_AT_TI_call
    2007              
    2008 0000037e 7640'         LCR       #_DRV8353_readSpi     ; [CPU_] |1305| 
         0000037f 010F 
    2009                      ; call occurs [#_DRV8353_readSpi] ; [] |1305| 
    2010                      .dwpsn  file "C:/ti/motorware_drv8353/motorware_1_01_00_18/sw/drivers/drvic/drv8353/src/32b/f28x/f280
    2011 00000380 D027          MOVB      XAR0,#39              ; [CPU_] |1306| 
    2012 00000381 CDA9          AND       AH,AL,#0x000f         ; [CPU_] |1306| 
         00000382 000F 
    2013 00000383 9791          MOV       *+XAR1[AR0],AH        ; [CPU_] |1306| 
    2014                      .dwpsn  file "C:/ti/motorware_drv8353/motorware_1_01_00_18/sw/drivers/drvic/drv8353/src/32b/f28x/f280
    2015 00000384 D028          MOVB      XAR0,#40              ; [CPU_] |1307| 
    2016 00000385 CDA9          AND       AH,AL,#0x0030         ; [CPU_] |1307| 
         00000386 0030 
    2017                      .dwpsn  file "C:/ti/motorware_drv8353/motorware_1_01_00_18/sw/drivers/drvic/drv8353/src/32b/f28x/f280
    2018 00000387 8AA2          MOVL      XAR4,XAR2             ; [CPU_] |1314| 
    2019                      .dwpsn  file "C:/ti/motorware_drv8353/motorware_1_01_00_18/sw/drivers/drvic/drv8353/src/32b/f28x/f280
    2020 00000388 9791          MOV       *+XAR1[AR0],AH        ; [CPU_] |1307| 
    2021                      .dwpsn  file "C:/ti/motorware_drv8353/motorware_1_01_00_18/sw/drivers/drvic/drv8353/src/32b/f28x/f280
    2022 00000389 D029          MOVB      XAR0,#41              ; [CPU_] |1308| 
    2023 0000038a CDA9          AND       AH,AL,#0x00c0         ; [CPU_] |1308| 
         0000038b 00C0 
    2024 0000038c 9791          MOV       *+XAR1[AR0],AH        ; [CPU_] |1308| 
TMS320C2000 Assembler PC v15.12.3 Wed Jul 04 16:10:52 2018

Tools Copyright (c) 1996-2015 Texas Instruments Incorporated
C:\Users\a0393005\AppData\Local\Temp\1506410                         PAGE   40

    2025                      .dwpsn  file "C:/ti/motorware_drv8353/motorware_1_01_00_18/sw/drivers/drvic/drv8353/src/32b/f28x/f280
    2026 0000038d D02A          MOVB      XAR0,#42              ; [CPU_] |1309| 
    2027 0000038e CDA9          AND       AH,AL,#0x0300         ; [CPU_] |1309| 
         0000038f 0300 
    2028                      .dwpsn  file "C:/ti/motorware_drv8353/motorware_1_01_00_18/sw/drivers/drvic/drv8353/src/32b/f28x/f280
    2029 00000390 FFC9          LSR       AL,10                 ; [CPU_] |1310| 
    2030                      .dwpsn  file "C:/ti/motorware_drv8353/motorware_1_01_00_18/sw/drivers/drvic/drv8353/src/32b/f28x/f280
    2031 00000391 9791          MOV       *+XAR1[AR0],AH        ; [CPU_] |1309| 
    2032                      .dwpsn  file "C:/ti/motorware_drv8353/motorware_1_01_00_18/sw/drivers/drvic/drv8353/src/32b/f28x/f280
    2033 00000392 9001          ANDB      AL,#0x01              ; [CPU_] |1310| 
    2034 00000393 D02B          MOVB      XAR0,#43              ; [CPU_] |1310| 
    2035 00000394 9691          MOV       *+XAR1[AR0],AL        ; [CPU_] |1310| 
    2036                      .dwpsn  file "C:/ti/motorware_drv8353/motorware_1_01_00_18/sw/drivers/drvic/drv8353/src/32b/f28x/f280
    2037 00000395 28A9          MOV       AL,#12288             ; [CPU_] |1314| 
         00000396 3000 
    2038              $C$DW$112       .dwtag  DW_TAG_TI_branch
    2039                      .dwattr $C$DW$112, DW_AT_low_pc(0x00)
    2040                      .dwattr $C$DW$112, DW_AT_name("_DRV8353_readSpi")
    2041                      .dwattr $C$DW$112, DW_AT_TI_call
    2042              
    2043 00000397 7640'         LCR       #_DRV8353_readSpi     ; [CPU_] |1314| 
         00000398 010F 
    2044                      ; call occurs [#_DRV8353_readSpi] ; [] |1314| 
    2045                      .dwpsn  file "C:/ti/motorware_drv8353/motorware_1_01_00_18/sw/drivers/drvic/drv8353/src/32b/f28x/f280
    2046 00000399 D02C          MOVB      XAR0,#44              ; [CPU_] |1315| 
    2047 0000039a CDA9          AND       AH,AL,#0x0003         ; [CPU_] |1315| 
         0000039b 0003 
    2048 0000039c 9791          MOV       *+XAR1[AR0],AH        ; [CPU_] |1315| 
    2049                      .dwpsn  file "C:/ti/motorware_drv8353/motorware_1_01_00_18/sw/drivers/drvic/drv8353/src/32b/f28x/f280
    2050 0000039d D02D          MOVB      XAR0,#45              ; [CPU_] |1316| 
    2051 0000039e 93A9          MOV       AH,AL                 ; [CPU_] |1316| 
    2052 0000039f FFD1          LSR       AH,2                  ; [CPU_] |1316| 
    2053 000003a0 9101          ANDB      AH,#0x01              ; [CPU_] |1316| 
    2054 000003a1 9791          MOV       *+XAR1[AR0],AH        ; [CPU_] |1316| 
    2055                      .dwpsn  file "C:/ti/motorware_drv8353/motorware_1_01_00_18/sw/drivers/drvic/drv8353/src/32b/f28x/f280
    2056 000003a2 D02E          MOVB      XAR0,#46              ; [CPU_] |1317| 
    2057 000003a3 93A9          MOV       AH,AL                 ; [CPU_] |1317| 
    2058                      .dwpsn  file "C:/ti/motorware_drv8353/motorware_1_01_00_18/sw/drivers/drvic/drv8353/src/32b/f28x/f280
    2059 000003a4 8AA2          MOVL      XAR4,XAR2             ; [CPU_] |1327| 
    2060                      .dwpsn  file "C:/ti/motorware_drv8353/motorware_1_01_00_18/sw/drivers/drvic/drv8353/src/32b/f28x/f280
    2061 000003a5 FFD2          LSR       AH,3                  ; [CPU_] |1317| 
    2062 000003a6 9101          ANDB      AH,#0x01              ; [CPU_] |1317| 
    2063 000003a7 9791          MOV       *+XAR1[AR0],AH        ; [CPU_] |1317| 
    2064                      .dwpsn  file "C:/ti/motorware_drv8353/motorware_1_01_00_18/sw/drivers/drvic/drv8353/src/32b/f28x/f280
    2065 000003a8 D02F          MOVB      XAR0,#47              ; [CPU_] |1318| 
    2066 000003a9 93A9          MOV       AH,AL                 ; [CPU_] |1318| 
    2067 000003aa FFD3          LSR       AH,4                  ; [CPU_] |1318| 
    2068 000003ab 9101          ANDB      AH,#0x01              ; [CPU_] |1318| 
    2069 000003ac 9791          MOV       *+XAR1[AR0],AH        ; [CPU_] |1318| 
    2070                      .dwpsn  file "C:/ti/motorware_drv8353/motorware_1_01_00_18/sw/drivers/drvic/drv8353/src/32b/f28x/f280
    2071 000003ad D030          MOVB      XAR0,#48              ; [CPU_] |1319| 
    2072 000003ae 93A9          MOV       AH,AL                 ; [CPU_] |1319| 
    2073 000003af FFD4          LSR       AH,5                  ; [CPU_] |1319| 
    2074 000003b0 9101          ANDB      AH,#0x01              ; [CPU_] |1319| 
    2075 000003b1 9791          MOV       *+XAR1[AR0],AH        ; [CPU_] |1319| 
TMS320C2000 Assembler PC v15.12.3 Wed Jul 04 16:10:52 2018

Tools Copyright (c) 1996-2015 Texas Instruments Incorporated
C:\Users\a0393005\AppData\Local\Temp\1506410                         PAGE   41

    2076                      .dwpsn  file "C:/ti/motorware_drv8353/motorware_1_01_00_18/sw/drivers/drvic/drv8353/src/32b/f28x/f280
    2077 000003b2 D031          MOVB      XAR0,#49              ; [CPU_] |1320| 
    2078 000003b3 CDA9          AND       AH,AL,#0x00c0         ; [CPU_] |1320| 
         000003b4 00C0 
    2079 000003b5 9791          MOV       *+XAR1[AR0],AH        ; [CPU_] |1320| 
    2080                      .dwpsn  file "C:/ti/motorware_drv8353/motorware_1_01_00_18/sw/drivers/drvic/drv8353/src/32b/f28x/f280
    2081 000003b6 D032          MOVB      XAR0,#50              ; [CPU_] |1321| 
    2082 000003b7 93A9          MOV       AH,AL                 ; [CPU_] |1321| 
    2083 000003b8 FFD7          LSR       AH,8                  ; [CPU_] |1321| 
    2084 000003b9 9101          ANDB      AH,#0x01              ; [CPU_] |1321| 
    2085 000003ba 9791          MOV       *+XAR1[AR0],AH        ; [CPU_] |1321| 
    2086                      .dwpsn  file "C:/ti/motorware_drv8353/motorware_1_01_00_18/sw/drivers/drvic/drv8353/src/32b/f28x/f280
    2087 000003bb 93A9          MOV       AH,AL                 ; [CPU_] |1322| 
    2088 000003bc D033          MOVB      XAR0,#51              ; [CPU_] |1322| 
    2089 000003bd FFD8          LSR       AH,9                  ; [CPU_] |1322| 
    2090 000003be 9101          ANDB      AH,#0x01              ; [CPU_] |1322| 
    2091                      .dwpsn  file "C:/ti/motorware_drv8353/motorware_1_01_00_18/sw/drivers/drvic/drv8353/src/32b/f28x/f280
    2092 000003bf FFC9          LSR       AL,10                 ; [CPU_] |1323| 
    2093 000003c0 9001          ANDB      AL,#0x01              ; [CPU_] |1323| 
    2094                      .dwpsn  file "C:/ti/motorware_drv8353/motorware_1_01_00_18/sw/drivers/drvic/drv8353/src/32b/f28x/f280
    2095 000003c1 9791          MOV       *+XAR1[AR0],AH        ; [CPU_] |1322| 
    2096                      .dwpsn  file "C:/ti/motorware_drv8353/motorware_1_01_00_18/sw/drivers/drvic/drv8353/src/32b/f28x/f280
    2097 000003c2 D034          MOVB      XAR0,#52              ; [CPU_] |1323| 
    2098 000003c3 9691          MOV       *+XAR1[AR0],AL        ; [CPU_] |1323| 
    2099                      .dwpsn  file "C:/ti/motorware_drv8353/motorware_1_01_00_18/sw/drivers/drvic/drv8353/src/32b/f28x/f280
    2100 000003c4 28A9          MOV       AL,#14336             ; [CPU_] |1327| 
         000003c5 3800 
    2101              $C$DW$113       .dwtag  DW_TAG_TI_branch
    2102                      .dwattr $C$DW$113, DW_AT_low_pc(0x00)
    2103                      .dwattr $C$DW$113, DW_AT_name("_DRV8353_readSpi")
    2104                      .dwattr $C$DW$113, DW_AT_TI_call
    2105              
    2106 000003c6 7640'         LCR       #_DRV8353_readSpi     ; [CPU_] |1327| 
         000003c7 010F 
    2107                      ; call occurs [#_DRV8353_readSpi] ; [] |1327| 
    2108                      .dwpsn  file "C:/ti/motorware_drv8353/motorware_1_01_00_18/sw/drivers/drvic/drv8353/src/32b/f28x/f280
    2109 000003c8 D035          MOVB      XAR0,#53              ; [CPU_] |1328| 
    2110 000003c9 CDA9          AND       AH,AL,#0x0001         ; [CPU_] |1328| 
         000003ca 0001 
    2111 000003cb 9791          MOV       *+XAR1[AR0],AH        ; [CPU_] |1328| 
    2112                      .dwpsn  file "C:/ti/motorware_drv8353/motorware_1_01_00_18/sw/drivers/drvic/drv8353/src/32b/f28x/f280
    2113 000003cc D036          MOVB      XAR0,#54              ; [CPU_] |1329| 
    2114 000003cd 93A9          MOV       AH,AL                 ; [CPU_] |1329| 
    2115 000003ce FFD0          LSR       AH,1                  ; [CPU_] |1329| 
    2116 000003cf 9101          ANDB      AH,#0x01              ; [CPU_] |1329| 
    2117 000003d0 9791          MOV       *+XAR1[AR0],AH        ; [CPU_] |1329| 
    2118                      .dwpsn  file "C:/ti/motorware_drv8353/motorware_1_01_00_18/sw/drivers/drvic/drv8353/src/32b/f28x/f280
    2119 000003d1 D037          MOVB      XAR0,#55              ; [CPU_] |1330| 
    2120 000003d2 93A9          MOV       AH,AL                 ; [CPU_] |1330| 
    2121 000003d3 FFD1          LSR       AH,2                  ; [CPU_] |1330| 
    2122 000003d4 9101          ANDB      AH,#0x01              ; [CPU_] |1330| 
    2123 000003d5 9791          MOV       *+XAR1[AR0],AH        ; [CPU_] |1330| 
    2124                      .dwpsn  file "C:/ti/motorware_drv8353/motorware_1_01_00_18/sw/drivers/drvic/drv8353/src/32b/f28x/f280
    2125 000003d6 D038          MOVB      XAR0,#56              ; [CPU_] |1331| 
    2126 000003d7 93A9          MOV       AH,AL                 ; [CPU_] |1331| 
TMS320C2000 Assembler PC v15.12.3 Wed Jul 04 16:10:52 2018

Tools Copyright (c) 1996-2015 Texas Instruments Incorporated
C:\Users\a0393005\AppData\Local\Temp\1506410                         PAGE   42

    2127 000003d8 FFD2          LSR       AH,3                  ; [CPU_] |1331| 
    2128 000003d9 9101          ANDB      AH,#0x01              ; [CPU_] |1331| 
    2129 000003da 9791          MOV       *+XAR1[AR0],AH        ; [CPU_] |1331| 
    2130                      .dwpsn  file "C:/ti/motorware_drv8353/motorware_1_01_00_18/sw/drivers/drvic/drv8353/src/32b/f28x/f280
    2131 000003db D039          MOVB      XAR0,#57              ; [CPU_] |1332| 
    2132 000003dc 93A9          MOV       AH,AL                 ; [CPU_] |1332| 
    2133 000003dd FFD3          LSR       AH,4                  ; [CPU_] |1332| 
    2134 000003de 9101          ANDB      AH,#0x01              ; [CPU_] |1332| 
    2135 000003df 9791          MOV       *+XAR1[AR0],AH        ; [CPU_] |1332| 
    2136                      .dwpsn  file "C:/ti/motorware_drv8353/motorware_1_01_00_18/sw/drivers/drvic/drv8353/src/32b/f28x/f280
    2137 000003e0 D03A          MOVB      XAR0,#58              ; [CPU_] |1333| 
    2138 000003e1 93A9          MOV       AH,AL                 ; [CPU_] |1333| 
    2139 000003e2 FFD4          LSR       AH,5                  ; [CPU_] |1333| 
    2140 000003e3 9101          ANDB      AH,#0x01              ; [CPU_] |1333| 
    2141 000003e4 9791          MOV       *+XAR1[AR0],AH        ; [CPU_] |1333| 
    2142                      .dwpsn  file "C:/ti/motorware_drv8353/motorware_1_01_00_18/sw/drivers/drvic/drv8353/src/32b/f28x/f280
    2143 000003e5 D03B          MOVB      XAR0,#59              ; [CPU_] |1334| 
    2144 000003e6 93A9          MOV       AH,AL                 ; [CPU_] |1334| 
    2145 000003e7 FFD5          LSR       AH,6                  ; [CPU_] |1334| 
    2146 000003e8 9101          ANDB      AH,#0x01              ; [CPU_] |1334| 
    2147 000003e9 9791          MOV       *+XAR1[AR0],AH        ; [CPU_] |1334| 
    2148                      .dwpsn  file "C:/ti/motorware_drv8353/motorware_1_01_00_18/sw/drivers/drvic/drv8353/src/32b/f28x/f280
    2149 000003ea D03C          MOVB      XAR0,#60              ; [CPU_] |1335| 
    2150 000003eb 93A9          MOV       AH,AL                 ; [CPU_] |1335| 
    2151 000003ec FFD6          LSR       AH,7                  ; [CPU_] |1335| 
    2152 000003ed 9101          ANDB      AH,#0x01              ; [CPU_] |1335| 
    2153 000003ee 9791          MOV       *+XAR1[AR0],AH        ; [CPU_] |1335| 
    2154                      .dwpsn  file "C:/ti/motorware_drv8353/motorware_1_01_00_18/sw/drivers/drvic/drv8353/src/32b/f28x/f280
    2155 000003ef D03D          MOVB      XAR0,#61              ; [CPU_] |1336| 
    2156 000003f0 93A9          MOV       AH,AL                 ; [CPU_] |1336| 
    2157 000003f1 FFD7          LSR       AH,8                  ; [CPU_] |1336| 
    2158 000003f2 9101          ANDB      AH,#0x01              ; [CPU_] |1336| 
    2159 000003f3 9791          MOV       *+XAR1[AR0],AH        ; [CPU_] |1336| 
    2160                      .dwpsn  file "C:/ti/motorware_drv8353/motorware_1_01_00_18/sw/drivers/drvic/drv8353/src/32b/f28x/f280
    2161 000003f4 93A9          MOV       AH,AL                 ; [CPU_] |1337| 
    2162 000003f5 D03E          MOVB      XAR0,#62              ; [CPU_] |1337| 
    2163 000003f6 FFD8          LSR       AH,9                  ; [CPU_] |1337| 
    2164 000003f7 9101          ANDB      AH,#0x01              ; [CPU_] |1337| 
    2165                      .dwpsn  file "C:/ti/motorware_drv8353/motorware_1_01_00_18/sw/drivers/drvic/drv8353/src/32b/f28x/f280
    2166 000003f8 FFC9          LSR       AL,10                 ; [CPU_] |1338| 
    2167 000003f9 9001          ANDB      AL,#0x01              ; [CPU_] |1338| 
    2168                      .dwpsn  file "C:/ti/motorware_drv8353/motorware_1_01_00_18/sw/drivers/drvic/drv8353/src/32b/f28x/f280
    2169 000003fa 9791          MOV       *+XAR1[AR0],AH        ; [CPU_] |1337| 
    2170                      .dwpsn  file "C:/ti/motorware_drv8353/motorware_1_01_00_18/sw/drivers/drvic/drv8353/src/32b/f28x/f280
    2171 000003fb D03F          MOVB      XAR0,#63              ; [CPU_] |1338| 
    2172 000003fc 9691          MOV       *+XAR1[AR0],AL        ; [CPU_] |1338| 
    2173                      .dwpsn  file "C:/ti/motorware_drv8353/motorware_1_01_00_18/sw/drivers/drvic/drv8353/src/32b/f28x/f280
    2174 000003fd D041          MOVB      XAR0,#65              ; [CPU_] |1340| 
    2175 000003fe 2B91          MOV       *+XAR1[AR0],#0        ; [CPU_] |1340| 
    2176 000003ff       $C$L9:    
    2177                      .dwpsn  file "C:/ti/motorware_drv8353/motorware_1_01_00_18/sw/drivers/drvic/drv8353/src/32b/f28x/f280
    2178 000003ff D047          MOVB      XAR0,#71              ; [CPU_] |1344| 
    2179 00000400 9291          MOV       AL,*+XAR1[AR0]        ; [CPU_] |1344| 
    2180 00000401 610B          B         $C$L10,EQ             ; [CPU_] |1344| 
    2181                      ; branchcc occurs ; [] |1344| 
TMS320C2000 Assembler PC v15.12.3 Wed Jul 04 16:10:52 2018

Tools Copyright (c) 1996-2015 Texas Instruments Incorporated
C:\Users\a0393005\AppData\Local\Temp\1506410                         PAGE   43

    2182                      .dwpsn  file "C:/ti/motorware_drv8353/motorware_1_01_00_18/sw/drivers/drvic/drv8353/src/32b/f28x/f280
    2183 00000402 D043          MOVB      XAR0,#67              ; [CPU_] |1348| 
    2184 00000403 8AA2          MOVL      XAR4,XAR2             ; [CPU_] |1348| 
    2185 00000404 5603          MOV       ACC,*+XAR1[AR0] << #11 ; [CPU_] |1348| 
         00000405 0B91 
    2186              $C$DW$114       .dwtag  DW_TAG_TI_branch
    2187                      .dwattr $C$DW$114, DW_AT_low_pc(0x00)
    2188                      .dwattr $C$DW$114, DW_AT_name("_DRV8353_readSpi")
    2189                      .dwattr $C$DW$114, DW_AT_TI_call
    2190              
    2191 00000406 7640'         LCR       #_DRV8353_readSpi     ; [CPU_] |1348| 
         00000407 010F 
    2192                      ; call occurs [#_DRV8353_readSpi] ; [] |1348| 
    2193                      .dwpsn  file "C:/ti/motorware_drv8353/motorware_1_01_00_18/sw/drivers/drvic/drv8353/src/32b/f28x/f280
    2194 00000408 D045          MOVB      XAR0,#69              ; [CPU_] |1349| 
    2195 00000409 9691          MOV       *+XAR1[AR0],AL        ; [CPU_] |1349| 
    2196                      .dwpsn  file "C:/ti/motorware_drv8353/motorware_1_01_00_18/sw/drivers/drvic/drv8353/src/32b/f28x/f280
    2197 0000040a D047          MOVB      XAR0,#71              ; [CPU_] |1350| 
    2198 0000040b 2B91          MOV       *+XAR1[AR0],#0        ; [CPU_] |1350| 
    2199 0000040c       $C$L10:    
    2200 0000040c 86BE          MOVL      XAR2,*--SP            ; [CPU_] 
    2201                      .dwcfi  cfa_offset, -4
    2202                      .dwcfi  restore_reg, 9
    2203 0000040d 8BBE          MOVL      XAR1,*--SP            ; [CPU_] 
    2204                      .dwcfi  cfa_offset, -2
    2205                      .dwcfi  restore_reg, 7
    2206              $C$DW$115       .dwtag  DW_TAG_TI_branch
    2207                      .dwattr $C$DW$115, DW_AT_low_pc(0x00)
    2208                      .dwattr $C$DW$115, DW_AT_TI_return
    2209              
    2210 0000040e 0006          LRETR     ; [CPU_] 
    2211                      ; return occurs ; [] 
    2212                      .dwattr $C$DW$92, DW_AT_TI_end_file("C:/ti/motorware_drv8353/motorware_1_01_00_18/sw/drivers/drvic/dr
    2213                      .dwattr $C$DW$92, DW_AT_TI_end_line(0x54a)
    2214                      .dwattr $C$DW$92, DW_AT_TI_end_column(0x01)
    2215                      .dwendentry
    2216                      .dwendtag $C$DW$92
    2217              
    2218 0000040f               .sect   ".text"
    2219                      .clink
    2220                      .global _DRV8353_init
    2221              
    2222              $C$DW$116       .dwtag  DW_TAG_subprogram
    2223                      .dwattr $C$DW$116, DW_AT_name("DRV8353_init")
    2224                      .dwattr $C$DW$116, DW_AT_low_pc(_DRV8353_init)
    2225                      .dwattr $C$DW$116, DW_AT_high_pc(0x00)
    2226                      .dwattr $C$DW$116, DW_AT_TI_symbol_name("_DRV8353_init")
    2227                      .dwattr $C$DW$116, DW_AT_external
    2228                      .dwattr $C$DW$116, DW_AT_type(*$C$DW$T$85)
    2229                      .dwattr $C$DW$116, DW_AT_TI_begin_file("C:/ti/motorware_drv8353/motorware_1_01_00_18/sw/drivers/drvic
    2230                      .dwattr $C$DW$116, DW_AT_TI_begin_line(0x46)
    2231                      .dwattr $C$DW$116, DW_AT_TI_begin_column(0x10)
    2232                      .dwattr $C$DW$116, DW_AT_TI_max_frame_size(-2)
    2233                      .dwpsn  file "C:/ti/motorware_drv8353/motorware_1_01_00_18/sw/drivers/drvic/drv8353/src/32b/f28x/f280
    2234              
TMS320C2000 Assembler PC v15.12.3 Wed Jul 04 16:10:52 2018

Tools Copyright (c) 1996-2015 Texas Instruments Incorporated
C:\Users\a0393005\AppData\Local\Temp\1506410                         PAGE   44

    2235                      .dwfde $C$DW$CIE, _DRV8353_init
    2236              $C$DW$117       .dwtag  DW_TAG_formal_parameter
    2237                      .dwattr $C$DW$117, DW_AT_name("pMemory")
    2238                      .dwattr $C$DW$117, DW_AT_TI_symbol_name("_pMemory")
    2239                      .dwattr $C$DW$117, DW_AT_type(*$C$DW$T$3)
    2240                      .dwattr $C$DW$117, DW_AT_location[DW_OP_reg12]
    2241              
    2242              $C$DW$118       .dwtag  DW_TAG_formal_parameter
    2243                      .dwattr $C$DW$118, DW_AT_name("numBytes")
    2244                      .dwattr $C$DW$118, DW_AT_TI_symbol_name("_numBytes")
    2245                      .dwattr $C$DW$118, DW_AT_type(*$C$DW$T$117)
    2246                      .dwattr $C$DW$118, DW_AT_location[DW_OP_reg0]
    2247              
    2248              
    2249              ;***************************************************************
    2250              ;* FNAME: _DRV8353_init                 FR SIZE:   0           *
    2251              ;*                                                             *
    2252              ;* FUNCTION ENVIRONMENT                                        *
    2253              ;*                                                             *
    2254              ;* FUNCTION PROPERTIES                                         *
    2255              ;*                            0 Parameter,  0 Auto,  0 SOE     *
    2256              ;***************************************************************
    2257              
    2258              _DRV8353_init:
    2259              ;* AR6   assigned to _numBytes
    2260              $C$DW$119       .dwtag  DW_TAG_variable
    2261                      .dwattr $C$DW$119, DW_AT_name("numBytes")
    2262                      .dwattr $C$DW$119, DW_AT_TI_symbol_name("_numBytes")
    2263                      .dwattr $C$DW$119, DW_AT_type(*$C$DW$T$117)
    2264                      .dwattr $C$DW$119, DW_AT_location[DW_OP_reg16]
    2265              
    2266              ;* AR4   assigned to _pMemory
    2267              $C$DW$120       .dwtag  DW_TAG_variable
    2268                      .dwattr $C$DW$120, DW_AT_name("pMemory")
    2269                      .dwattr $C$DW$120, DW_AT_TI_symbol_name("_pMemory")
    2270                      .dwattr $C$DW$120, DW_AT_type(*$C$DW$T$131)
    2271                      .dwattr $C$DW$120, DW_AT_location[DW_OP_reg12]
    2272              
    2273                      .dwcfi  cfa_offset, -2
    2274                      .dwcfi  save_reg_to_mem, 26, 0
    2275 0000040f 1EA6          MOVL      XAR6,ACC              ; [CPU_] |71| 
    2276                      .dwpsn  file "C:/ti/motorware_drv8353/motorware_1_01_00_18/sw/drivers/drvic/drv8353/src/32b/f28x/f280
    2277 00000410 0208          MOVB      ACC,#8                ; [CPU_] |74| 
    2278 00000411 0FA6          CMPL      ACC,XAR6              ; [CPU_] |74| 
    2279 00000412 6903          B         $C$L11,LOS            ; [CPU_] |74| 
    2280                      ; branchcc occurs ; [] |74| 
    2281                      .dwcfi  remember_state
    2282                      .dwpsn  file "C:/ti/motorware_drv8353/motorware_1_01_00_18/sw/drivers/drvic/drv8353/src/32b/f28x/f280
    2283 00000413 D400          MOVB      XAR4,#0               ; [CPU_] |75| 
    2284              $C$DW$121       .dwtag  DW_TAG_TI_branch
    2285                      .dwattr $C$DW$121, DW_AT_low_pc(0x00)
    2286                      .dwattr $C$DW$121, DW_AT_TI_return
    2287              
    2288 00000414 0006          LRETR     ; [CPU_] 
    2289                      ; return occurs ; [] 
TMS320C2000 Assembler PC v15.12.3 Wed Jul 04 16:10:52 2018

Tools Copyright (c) 1996-2015 Texas Instruments Incorporated
C:\Users\a0393005\AppData\Local\Temp\1506410                         PAGE   45

    2290                      .dwcfi  restore_state
    2291 00000415       $C$L11:    
    2292                      .dwpsn  file "C:/ti/motorware_drv8353/motorware_1_01_00_18/sw/drivers/drvic/drv8353/src/32b/f28x/f280
    2293 00000415 2BEC          MOV       *+XAR4[5],#0          ; [CPU_] |1116| 
    2294                      .dwpsn  file "C:/ti/motorware_drv8353/motorware_1_01_00_18/sw/drivers/drvic/drv8353/src/32b/f28x/f280
    2295 00000416 2BF4          MOV       *+XAR4[6],#0          ; [CPU_] |1104| 
    2296              $C$DW$122       .dwtag  DW_TAG_TI_branch
    2297                      .dwattr $C$DW$122, DW_AT_low_pc(0x00)
    2298                      .dwattr $C$DW$122, DW_AT_TI_return
    2299              
    2300 00000417 0006          LRETR     ; [CPU_] 
    2301                      ; return occurs ; [] 
    2302                      .dwattr $C$DW$116, DW_AT_TI_end_file("C:/ti/motorware_drv8353/motorware_1_01_00_18/sw/drivers/drvic/d
    2303                      .dwattr $C$DW$116, DW_AT_TI_end_line(0x54)
    2304                      .dwattr $C$DW$116, DW_AT_TI_end_column(0x01)
    2305                      .dwendentry
    2306                      .dwendtag $C$DW$116
    2307              
    2308 00000418               .sect   ".text"
    2309                      .clink
    2310                      .global _DRV8353_getVDSDeglitch
    2311              
    2312              $C$DW$123       .dwtag  DW_TAG_subprogram
    2313                      .dwattr $C$DW$123, DW_AT_name("DRV8353_getVDSDeglitch")
    2314                      .dwattr $C$DW$123, DW_AT_low_pc(_DRV8353_getVDSDeglitch)
    2315                      .dwattr $C$DW$123, DW_AT_high_pc(0x00)
    2316                      .dwattr $C$DW$123, DW_AT_TI_symbol_name("_DRV8353_getVDSDeglitch")
    2317                      .dwattr $C$DW$123, DW_AT_external
    2318                      .dwattr $C$DW$123, DW_AT_type(*$C$DW$T$47)
    2319                      .dwattr $C$DW$123, DW_AT_TI_begin_file("C:/ti/motorware_drv8353/motorware_1_01_00_18/sw/drivers/drvic
    2320                      .dwattr $C$DW$123, DW_AT_TI_begin_line(0xd5)
    2321                      .dwattr $C$DW$123, DW_AT_TI_begin_column(0x19)
    2322                      .dwattr $C$DW$123, DW_AT_TI_max_frame_size(-2)
    2323                      .dwpsn  file "C:/ti/motorware_drv8353/motorware_1_01_00_18/sw/drivers/drvic/drv8353/src/32b/f28x/f280
    2324              
    2325                      .dwfde $C$DW$CIE, _DRV8353_getVDSDeglitch
    2326              $C$DW$124       .dwtag  DW_TAG_formal_parameter
    2327                      .dwattr $C$DW$124, DW_AT_name("handle")
    2328                      .dwattr $C$DW$124, DW_AT_TI_symbol_name("_handle")
    2329                      .dwattr $C$DW$124, DW_AT_type(*$C$DW$T$85)
    2330                      .dwattr $C$DW$124, DW_AT_location[DW_OP_reg12]
    2331              
    2332              
    2333              ;***************************************************************
    2334              ;* FNAME: _DRV8353_getVDSDeglitch       FR SIZE:   0           *
    2335              ;*                                                             *
    2336              ;* FUNCTION ENVIRONMENT                                        *
    2337              ;*                                                             *
    2338              ;* FUNCTION PROPERTIES                                         *
    2339              ;*                            0 Parameter,  0 Auto,  0 SOE     *
    2340              ;***************************************************************
    2341              
    2342              _DRV8353_getVDSDeglitch:
    2343              ;* AL    assigned to _data
    2344              $C$DW$125       .dwtag  DW_TAG_variable
TMS320C2000 Assembler PC v15.12.3 Wed Jul 04 16:10:52 2018

Tools Copyright (c) 1996-2015 Texas Instruments Incorporated
C:\Users\a0393005\AppData\Local\Temp\1506410                         PAGE   46

    2345                      .dwattr $C$DW$125, DW_AT_name("data")
    2346                      .dwattr $C$DW$125, DW_AT_TI_symbol_name("_data")
    2347                      .dwattr $C$DW$125, DW_AT_type(*$C$DW$T$69)
    2348                      .dwattr $C$DW$125, DW_AT_location[DW_OP_reg0]
    2349              
    2350                      .dwcfi  cfa_offset, -2
    2351                      .dwcfi  save_reg_to_mem, 26, 0
    2352                      .dwpsn  file "C:/ti/motorware_drv8353/motorware_1_01_00_18/sw/drivers/drvic/drv8353/src/32b/f28x/f280
    2353 00000418 28A9          MOV       AL,#10240             ; [CPU_] |218| 
         00000419 2800 
    2354              $C$DW$126       .dwtag  DW_TAG_TI_branch
    2355                      .dwattr $C$DW$126, DW_AT_low_pc(0x00)
    2356                      .dwattr $C$DW$126, DW_AT_name("_DRV8353_readSpi")
    2357                      .dwattr $C$DW$126, DW_AT_TI_call
    2358              
    2359 0000041a 7640'         LCR       #_DRV8353_readSpi     ; [CPU_] |218| 
         0000041b 010F 
    2360                      ; call occurs [#_DRV8353_readSpi] ; [] |218| 
    2361                      .dwpsn  file "C:/ti/motorware_drv8353/motorware_1_01_00_18/sw/drivers/drvic/drv8353/src/32b/f28x/f280
    2362 0000041c 9030          ANDB      AL,#0x30              ; [CPU_] |223| 
    2363              $C$DW$127       .dwtag  DW_TAG_TI_branch
    2364                      .dwattr $C$DW$127, DW_AT_low_pc(0x00)
    2365                      .dwattr $C$DW$127, DW_AT_TI_return
    2366              
    2367 0000041d 0006          LRETR     ; [CPU_] 
    2368                      ; return occurs ; [] 
    2369                      .dwattr $C$DW$123, DW_AT_TI_end_file("C:/ti/motorware_drv8353/motorware_1_01_00_18/sw/drivers/drvic/d
    2370                      .dwattr $C$DW$123, DW_AT_TI_end_line(0xe0)
    2371                      .dwattr $C$DW$123, DW_AT_TI_end_column(0x01)
    2372                      .dwendentry
    2373                      .dwendtag $C$DW$123
    2374              
    2375 0000041e               .sect   ".text"
    2376                      .clink
    2377                      .global _DRV8353_getPwmMode
    2378              
    2379              $C$DW$128       .dwtag  DW_TAG_subprogram
    2380                      .dwattr $C$DW$128, DW_AT_name("DRV8353_getPwmMode")
    2381                      .dwattr $C$DW$128, DW_AT_low_pc(_DRV8353_getPwmMode)
    2382                      .dwattr $C$DW$128, DW_AT_high_pc(0x00)
    2383                      .dwattr $C$DW$128, DW_AT_TI_symbol_name("_DRV8353_getPwmMode")
    2384                      .dwattr $C$DW$128, DW_AT_external
    2385                      .dwattr $C$DW$128, DW_AT_type(*$C$DW$T$28)
    2386                      .dwattr $C$DW$128, DW_AT_TI_begin_file("C:/ti/motorware_drv8353/motorware_1_01_00_18/sw/drivers/drvic
    2387                      .dwattr $C$DW$128, DW_AT_TI_begin_line(0xff)
    2388                      .dwattr $C$DW$128, DW_AT_TI_begin_column(0x1a)
    2389                      .dwattr $C$DW$128, DW_AT_TI_max_frame_size(-2)
    2390                      .dwpsn  file "C:/ti/motorware_drv8353/motorware_1_01_00_18/sw/drivers/drvic/drv8353/src/32b/f28x/f280
    2391              
    2392                      .dwfde $C$DW$CIE, _DRV8353_getPwmMode
    2393              $C$DW$129       .dwtag  DW_TAG_formal_parameter
    2394                      .dwattr $C$DW$129, DW_AT_name("handle")
    2395                      .dwattr $C$DW$129, DW_AT_TI_symbol_name("_handle")
    2396                      .dwattr $C$DW$129, DW_AT_type(*$C$DW$T$85)
    2397                      .dwattr $C$DW$129, DW_AT_location[DW_OP_reg12]
TMS320C2000 Assembler PC v15.12.3 Wed Jul 04 16:10:52 2018

Tools Copyright (c) 1996-2015 Texas Instruments Incorporated
C:\Users\a0393005\AppData\Local\Temp\1506410                         PAGE   47

    2398              
    2399              
    2400              ;***************************************************************
    2401              ;* FNAME: _DRV8353_getPwmMode           FR SIZE:   0           *
    2402              ;*                                                             *
    2403              ;* FUNCTION ENVIRONMENT                                        *
    2404              ;*                                                             *
    2405              ;* FUNCTION PROPERTIES                                         *
    2406              ;*                            0 Parameter,  0 Auto,  0 SOE     *
    2407              ;***************************************************************
    2408              
    2409              _DRV8353_getPwmMode:
    2410              ;* AL    assigned to _data
    2411              $C$DW$130       .dwtag  DW_TAG_variable
    2412                      .dwattr $C$DW$130, DW_AT_name("data")
    2413                      .dwattr $C$DW$130, DW_AT_TI_symbol_name("_data")
    2414                      .dwattr $C$DW$130, DW_AT_type(*$C$DW$T$69)
    2415                      .dwattr $C$DW$130, DW_AT_location[DW_OP_reg0]
    2416              
    2417                      .dwcfi  cfa_offset, -2
    2418                      .dwcfi  save_reg_to_mem, 26, 0
    2419                      .dwpsn  file "C:/ti/motorware_drv8353/motorware_1_01_00_18/sw/drivers/drvic/drv8353/src/32b/f28x/f280
    2420 0000041e 28A9          MOV       AL,#4096              ; [CPU_] |260| 
         0000041f 1000 
    2421              $C$DW$131       .dwtag  DW_TAG_TI_branch
    2422                      .dwattr $C$DW$131, DW_AT_low_pc(0x00)
    2423                      .dwattr $C$DW$131, DW_AT_name("_DRV8353_readSpi")
    2424                      .dwattr $C$DW$131, DW_AT_TI_call
    2425              
    2426 00000420 7640'         LCR       #_DRV8353_readSpi     ; [CPU_] |260| 
         00000421 010F 
    2427                      ; call occurs [#_DRV8353_readSpi] ; [] |260| 
    2428                      .dwpsn  file "C:/ti/motorware_drv8353/motorware_1_01_00_18/sw/drivers/drvic/drv8353/src/32b/f28x/f280
    2429 00000422 9060          ANDB      AL,#0x60              ; [CPU_] |265| 
    2430              $C$DW$132       .dwtag  DW_TAG_TI_branch
    2431                      .dwattr $C$DW$132, DW_AT_low_pc(0x00)
    2432                      .dwattr $C$DW$132, DW_AT_TI_return
    2433              
    2434 00000423 0006          LRETR     ; [CPU_] 
    2435                      ; return occurs ; [] 
    2436                      .dwattr $C$DW$128, DW_AT_TI_end_file("C:/ti/motorware_drv8353/motorware_1_01_00_18/sw/drivers/drvic/d
    2437                      .dwattr $C$DW$128, DW_AT_TI_end_line(0x10a)
    2438                      .dwattr $C$DW$128, DW_AT_TI_end_column(0x01)
    2439                      .dwendentry
    2440                      .dwendtag $C$DW$128
    2441              
    2442 00000424               .sect   ".text"
    2443                      .clink
    2444                      .global _DRV8353_getPeakSourTime
    2445              
    2446              $C$DW$133       .dwtag  DW_TAG_subprogram
    2447                      .dwattr $C$DW$133, DW_AT_name("DRV8353_getPeakSourTime")
    2448                      .dwattr $C$DW$133, DW_AT_low_pc(_DRV8353_getPeakSourTime)
    2449                      .dwattr $C$DW$133, DW_AT_high_pc(0x00)
    2450                      .dwattr $C$DW$133, DW_AT_TI_symbol_name("_DRV8353_getPeakSourTime")
TMS320C2000 Assembler PC v15.12.3 Wed Jul 04 16:10:52 2018

Tools Copyright (c) 1996-2015 Texas Instruments Incorporated
C:\Users\a0393005\AppData\Local\Temp\1506410                         PAGE   48

    2451                      .dwattr $C$DW$133, DW_AT_external
    2452                      .dwattr $C$DW$133, DW_AT_type(*$C$DW$T$42)
    2453                      .dwattr $C$DW$133, DW_AT_TI_begin_file("C:/ti/motorware_drv8353/motorware_1_01_00_18/sw/drivers/drvic
    2454                      .dwattr $C$DW$133, DW_AT_TI_begin_line(0x9d)
    2455                      .dwattr $C$DW$133, DW_AT_TI_begin_column(0x1b)
    2456                      .dwattr $C$DW$133, DW_AT_TI_max_frame_size(-2)
    2457                      .dwpsn  file "C:/ti/motorware_drv8353/motorware_1_01_00_18/sw/drivers/drvic/drv8353/src/32b/f28x/f280
    2458              
    2459                      .dwfde $C$DW$CIE, _DRV8353_getPeakSourTime
    2460              $C$DW$134       .dwtag  DW_TAG_formal_parameter
    2461                      .dwattr $C$DW$134, DW_AT_name("handle")
    2462                      .dwattr $C$DW$134, DW_AT_TI_symbol_name("_handle")
    2463                      .dwattr $C$DW$134, DW_AT_type(*$C$DW$T$85)
    2464                      .dwattr $C$DW$134, DW_AT_location[DW_OP_reg12]
    2465              
    2466              
    2467              ;***************************************************************
    2468              ;* FNAME: _DRV8353_getPeakSourTime      FR SIZE:   0           *
    2469              ;*                                                             *
    2470              ;* FUNCTION ENVIRONMENT                                        *
    2471              ;*                                                             *
    2472              ;* FUNCTION PROPERTIES                                         *
    2473              ;*                            0 Parameter,  0 Auto,  0 SOE     *
    2474              ;***************************************************************
    2475              
    2476              _DRV8353_getPeakSourTime:
    2477              ;* AL    assigned to _data
    2478              $C$DW$135       .dwtag  DW_TAG_variable
    2479                      .dwattr $C$DW$135, DW_AT_name("data")
    2480                      .dwattr $C$DW$135, DW_AT_TI_symbol_name("_data")
    2481                      .dwattr $C$DW$135, DW_AT_type(*$C$DW$T$69)
    2482                      .dwattr $C$DW$135, DW_AT_location[DW_OP_reg0]
    2483              
    2484                      .dwcfi  cfa_offset, -2
    2485                      .dwcfi  save_reg_to_mem, 26, 0
    2486                      .dwpsn  file "C:/ti/motorware_drv8353/motorware_1_01_00_18/sw/drivers/drvic/drv8353/src/32b/f28x/f280
    2487 00000424 28A9          MOV       AL,#8192              ; [CPU_] |162| 
         00000425 2000 
    2488              $C$DW$136       .dwtag  DW_TAG_TI_branch
    2489                      .dwattr $C$DW$136, DW_AT_low_pc(0x00)
    2490                      .dwattr $C$DW$136, DW_AT_name("_DRV8353_readSpi")
    2491                      .dwattr $C$DW$136, DW_AT_TI_call
    2492              
    2493 00000426 7640'         LCR       #_DRV8353_readSpi     ; [CPU_] |162| 
         00000427 010F 
    2494                      ; call occurs [#_DRV8353_readSpi] ; [] |162| 
    2495                      .dwpsn  file "C:/ti/motorware_drv8353/motorware_1_01_00_18/sw/drivers/drvic/drv8353/src/32b/f28x/f280
    2496 00000428 18A9          AND       AL,#0x0300            ; [CPU_] |167| 
         00000429 0300 
    2497              $C$DW$137       .dwtag  DW_TAG_TI_branch
    2498                      .dwattr $C$DW$137, DW_AT_low_pc(0x00)
    2499                      .dwattr $C$DW$137, DW_AT_TI_return
    2500              
    2501 0000042a 0006          LRETR     ; [CPU_] 
    2502                      ; return occurs ; [] 
TMS320C2000 Assembler PC v15.12.3 Wed Jul 04 16:10:52 2018

Tools Copyright (c) 1996-2015 Texas Instruments Incorporated
C:\Users\a0393005\AppData\Local\Temp\1506410                         PAGE   49

    2503                      .dwattr $C$DW$133, DW_AT_TI_end_file("C:/ti/motorware_drv8353/motorware_1_01_00_18/sw/drivers/drvic/d
    2504                      .dwattr $C$DW$133, DW_AT_TI_end_line(0xa8)
    2505                      .dwattr $C$DW$133, DW_AT_TI_end_column(0x01)
    2506                      .dwendentry
    2507                      .dwendtag $C$DW$133
    2508              
    2509 0000042b               .sect   ".text"
    2510                      .clink
    2511                      .global _DRV8353_getPeakSourCurLS
    2512              
    2513              $C$DW$138       .dwtag  DW_TAG_subprogram
    2514                      .dwattr $C$DW$138, DW_AT_name("DRV8353_getPeakSourCurLS")
    2515                      .dwattr $C$DW$138, DW_AT_low_pc(_DRV8353_getPeakSourCurLS)
    2516                      .dwattr $C$DW$138, DW_AT_high_pc(0x00)
    2517                      .dwattr $C$DW$138, DW_AT_TI_symbol_name("_DRV8353_getPeakSourCurLS")
    2518                      .dwattr $C$DW$138, DW_AT_external
    2519                      .dwattr $C$DW$138, DW_AT_type(*$C$DW$T$40)
    2520                      .dwattr $C$DW$138, DW_AT_TI_begin_file("C:/ti/motorware_drv8353/motorware_1_01_00_18/sw/drivers/drvic
    2521                      .dwattr $C$DW$138, DW_AT_TI_begin_line(0xab)
    2522                      .dwattr $C$DW$138, DW_AT_TI_begin_column(0x20)
    2523                      .dwattr $C$DW$138, DW_AT_TI_max_frame_size(-2)
    2524                      .dwpsn  file "C:/ti/motorware_drv8353/motorware_1_01_00_18/sw/drivers/drvic/drv8353/src/32b/f28x/f280
    2525              
    2526                      .dwfde $C$DW$CIE, _DRV8353_getPeakSourCurLS
    2527              $C$DW$139       .dwtag  DW_TAG_formal_parameter
    2528                      .dwattr $C$DW$139, DW_AT_name("handle")
    2529                      .dwattr $C$DW$139, DW_AT_TI_symbol_name("_handle")
    2530                      .dwattr $C$DW$139, DW_AT_type(*$C$DW$T$85)
    2531                      .dwattr $C$DW$139, DW_AT_location[DW_OP_reg12]
    2532              
    2533              
    2534              ;***************************************************************
    2535              ;* FNAME: _DRV8353_getPeakSourCurLS     FR SIZE:   0           *
    2536              ;*                                                             *
    2537              ;* FUNCTION ENVIRONMENT                                        *
    2538              ;*                                                             *
    2539              ;* FUNCTION PROPERTIES                                         *
    2540              ;*                            0 Parameter,  0 Auto,  0 SOE     *
    2541              ;***************************************************************
    2542              
    2543              _DRV8353_getPeakSourCurLS:
    2544              ;* AL    assigned to _data
    2545              $C$DW$140       .dwtag  DW_TAG_variable
    2546                      .dwattr $C$DW$140, DW_AT_name("data")
    2547                      .dwattr $C$DW$140, DW_AT_TI_symbol_name("_data")
    2548                      .dwattr $C$DW$140, DW_AT_type(*$C$DW$T$69)
    2549                      .dwattr $C$DW$140, DW_AT_location[DW_OP_reg0]
    2550              
    2551                      .dwcfi  cfa_offset, -2
    2552                      .dwcfi  save_reg_to_mem, 26, 0
    2553                      .dwpsn  file "C:/ti/motorware_drv8353/motorware_1_01_00_18/sw/drivers/drvic/drv8353/src/32b/f28x/f280
    2554 0000042b 28A9          MOV       AL,#8192              ; [CPU_] |176| 
         0000042c 2000 
    2555              $C$DW$141       .dwtag  DW_TAG_TI_branch
    2556                      .dwattr $C$DW$141, DW_AT_low_pc(0x00)
TMS320C2000 Assembler PC v15.12.3 Wed Jul 04 16:10:52 2018

Tools Copyright (c) 1996-2015 Texas Instruments Incorporated
C:\Users\a0393005\AppData\Local\Temp\1506410                         PAGE   50

    2557                      .dwattr $C$DW$141, DW_AT_name("_DRV8353_readSpi")
    2558                      .dwattr $C$DW$141, DW_AT_TI_call
    2559              
    2560 0000042d 7640'         LCR       #_DRV8353_readSpi     ; [CPU_] |176| 
         0000042e 010F 
    2561                      ; call occurs [#_DRV8353_readSpi] ; [] |176| 
    2562                      .dwpsn  file "C:/ti/motorware_drv8353/motorware_1_01_00_18/sw/drivers/drvic/drv8353/src/32b/f28x/f280
    2563 0000042f 90F0          ANDB      AL,#0xf0              ; [CPU_] |181| 
    2564              $C$DW$142       .dwtag  DW_TAG_TI_branch
    2565                      .dwattr $C$DW$142, DW_AT_low_pc(0x00)
    2566                      .dwattr $C$DW$142, DW_AT_TI_return
    2567              
    2568 00000430 0006          LRETR     ; [CPU_] 
    2569                      ; return occurs ; [] 
    2570                      .dwattr $C$DW$138, DW_AT_TI_end_file("C:/ti/motorware_drv8353/motorware_1_01_00_18/sw/drivers/drvic/d
    2571                      .dwattr $C$DW$138, DW_AT_TI_end_line(0xb6)
    2572                      .dwattr $C$DW$138, DW_AT_TI_end_column(0x01)
    2573                      .dwendentry
    2574                      .dwendtag $C$DW$138
    2575              
    2576 00000431               .sect   ".text"
    2577                      .clink
    2578                      .global _DRV8353_getPeakSourCurHS
    2579              
    2580              $C$DW$143       .dwtag  DW_TAG_subprogram
    2581                      .dwattr $C$DW$143, DW_AT_name("DRV8353_getPeakSourCurHS")
    2582                      .dwattr $C$DW$143, DW_AT_low_pc(_DRV8353_getPeakSourCurHS)
    2583                      .dwattr $C$DW$143, DW_AT_high_pc(0x00)
    2584                      .dwattr $C$DW$143, DW_AT_TI_symbol_name("_DRV8353_getPeakSourCurHS")
    2585                      .dwattr $C$DW$143, DW_AT_external
    2586                      .dwattr $C$DW$143, DW_AT_type(*$C$DW$T$33)
    2587                      .dwattr $C$DW$143, DW_AT_TI_begin_file("C:/ti/motorware_drv8353/motorware_1_01_00_18/sw/drivers/drvic
    2588                      .dwattr $C$DW$143, DW_AT_TI_begin_line(0x81)
    2589                      .dwattr $C$DW$143, DW_AT_TI_begin_column(0x20)
    2590                      .dwattr $C$DW$143, DW_AT_TI_max_frame_size(-2)
    2591                      .dwpsn  file "C:/ti/motorware_drv8353/motorware_1_01_00_18/sw/drivers/drvic/drv8353/src/32b/f28x/f280
    2592              
    2593                      .dwfde $C$DW$CIE, _DRV8353_getPeakSourCurHS
    2594              $C$DW$144       .dwtag  DW_TAG_formal_parameter
    2595                      .dwattr $C$DW$144, DW_AT_name("handle")
    2596                      .dwattr $C$DW$144, DW_AT_TI_symbol_name("_handle")
    2597                      .dwattr $C$DW$144, DW_AT_type(*$C$DW$T$85)
    2598                      .dwattr $C$DW$144, DW_AT_location[DW_OP_reg12]
    2599              
    2600              
    2601              ;***************************************************************
    2602              ;* FNAME: _DRV8353_getPeakSourCurHS     FR SIZE:   0           *
    2603              ;*                                                             *
    2604              ;* FUNCTION ENVIRONMENT                                        *
    2605              ;*                                                             *
    2606              ;* FUNCTION PROPERTIES                                         *
    2607              ;*                            0 Parameter,  0 Auto,  0 SOE     *
    2608              ;***************************************************************
    2609              
    2610              _DRV8353_getPeakSourCurHS:
TMS320C2000 Assembler PC v15.12.3 Wed Jul 04 16:10:52 2018

Tools Copyright (c) 1996-2015 Texas Instruments Incorporated
C:\Users\a0393005\AppData\Local\Temp\1506410                         PAGE   51

    2611              ;* AL    assigned to _data
    2612              $C$DW$145       .dwtag  DW_TAG_variable
    2613                      .dwattr $C$DW$145, DW_AT_name("data")
    2614                      .dwattr $C$DW$145, DW_AT_TI_symbol_name("_data")
    2615                      .dwattr $C$DW$145, DW_AT_type(*$C$DW$T$69)
    2616                      .dwattr $C$DW$145, DW_AT_location[DW_OP_reg0]
    2617              
    2618                      .dwcfi  cfa_offset, -2
    2619                      .dwcfi  save_reg_to_mem, 26, 0
    2620                      .dwpsn  file "C:/ti/motorware_drv8353/motorware_1_01_00_18/sw/drivers/drvic/drv8353/src/32b/f28x/f280
    2621 00000431 28A9          MOV       AL,#6144              ; [CPU_] |134| 
         00000432 1800 
    2622              $C$DW$146       .dwtag  DW_TAG_TI_branch
    2623                      .dwattr $C$DW$146, DW_AT_low_pc(0x00)
    2624                      .dwattr $C$DW$146, DW_AT_name("_DRV8353_readSpi")
    2625                      .dwattr $C$DW$146, DW_AT_TI_call
    2626              
    2627 00000433 7640'         LCR       #_DRV8353_readSpi     ; [CPU_] |134| 
         00000434 010F 
    2628                      ; call occurs [#_DRV8353_readSpi] ; [] |134| 
    2629                      .dwpsn  file "C:/ti/motorware_drv8353/motorware_1_01_00_18/sw/drivers/drvic/drv8353/src/32b/f28x/f280
    2630 00000435 90F0          ANDB      AL,#0xf0              ; [CPU_] |139| 
    2631              $C$DW$147       .dwtag  DW_TAG_TI_branch
    2632                      .dwattr $C$DW$147, DW_AT_low_pc(0x00)
    2633                      .dwattr $C$DW$147, DW_AT_TI_return
    2634              
    2635 00000436 0006          LRETR     ; [CPU_] 
    2636                      ; return occurs ; [] 
    2637                      .dwattr $C$DW$143, DW_AT_TI_end_file("C:/ti/motorware_drv8353/motorware_1_01_00_18/sw/drivers/drvic/d
    2638                      .dwattr $C$DW$143, DW_AT_TI_end_line(0x8c)
    2639                      .dwattr $C$DW$143, DW_AT_TI_end_column(0x01)
    2640                      .dwendentry
    2641                      .dwendtag $C$DW$143
    2642              
    2643 00000437               .sect   ".text"
    2644                      .clink
    2645                      .global _DRV8353_getPeakSinkCurLS
    2646              
    2647              $C$DW$148       .dwtag  DW_TAG_subprogram
    2648                      .dwattr $C$DW$148, DW_AT_name("DRV8353_getPeakSinkCurLS")
    2649                      .dwattr $C$DW$148, DW_AT_low_pc(_DRV8353_getPeakSinkCurLS)
    2650                      .dwattr $C$DW$148, DW_AT_high_pc(0x00)
    2651                      .dwattr $C$DW$148, DW_AT_TI_symbol_name("_DRV8353_getPeakSinkCurLS")
    2652                      .dwattr $C$DW$148, DW_AT_external
    2653                      .dwattr $C$DW$148, DW_AT_type(*$C$DW$T$38)
    2654                      .dwattr $C$DW$148, DW_AT_TI_begin_file("C:/ti/motorware_drv8353/motorware_1_01_00_18/sw/drivers/drvic
    2655                      .dwattr $C$DW$148, DW_AT_TI_begin_line(0xb9)
    2656                      .dwattr $C$DW$148, DW_AT_TI_begin_column(0x20)
    2657                      .dwattr $C$DW$148, DW_AT_TI_max_frame_size(-2)
    2658                      .dwpsn  file "C:/ti/motorware_drv8353/motorware_1_01_00_18/sw/drivers/drvic/drv8353/src/32b/f28x/f280
    2659              
    2660                      .dwfde $C$DW$CIE, _DRV8353_getPeakSinkCurLS
    2661              $C$DW$149       .dwtag  DW_TAG_formal_parameter
    2662                      .dwattr $C$DW$149, DW_AT_name("handle")
    2663                      .dwattr $C$DW$149, DW_AT_TI_symbol_name("_handle")
TMS320C2000 Assembler PC v15.12.3 Wed Jul 04 16:10:52 2018

Tools Copyright (c) 1996-2015 Texas Instruments Incorporated
C:\Users\a0393005\AppData\Local\Temp\1506410                         PAGE   52

    2664                      .dwattr $C$DW$149, DW_AT_type(*$C$DW$T$85)
    2665                      .dwattr $C$DW$149, DW_AT_location[DW_OP_reg12]
    2666              
    2667              
    2668              ;***************************************************************
    2669              ;* FNAME: _DRV8353_getPeakSinkCurLS     FR SIZE:   0           *
    2670              ;*                                                             *
    2671              ;* FUNCTION ENVIRONMENT                                        *
    2672              ;*                                                             *
    2673              ;* FUNCTION PROPERTIES                                         *
    2674              ;*                            0 Parameter,  0 Auto,  0 SOE     *
    2675              ;***************************************************************
    2676              
    2677              _DRV8353_getPeakSinkCurLS:
    2678              ;* AL    assigned to _data
    2679              $C$DW$150       .dwtag  DW_TAG_variable
    2680                      .dwattr $C$DW$150, DW_AT_name("data")
    2681                      .dwattr $C$DW$150, DW_AT_TI_symbol_name("_data")
    2682                      .dwattr $C$DW$150, DW_AT_type(*$C$DW$T$69)
    2683                      .dwattr $C$DW$150, DW_AT_location[DW_OP_reg0]
    2684              
    2685                      .dwcfi  cfa_offset, -2
    2686                      .dwcfi  save_reg_to_mem, 26, 0
    2687                      .dwpsn  file "C:/ti/motorware_drv8353/motorware_1_01_00_18/sw/drivers/drvic/drv8353/src/32b/f28x/f280
    2688 00000437 28A9          MOV       AL,#8192              ; [CPU_] |190| 
         00000438 2000 
    2689              $C$DW$151       .dwtag  DW_TAG_TI_branch
    2690                      .dwattr $C$DW$151, DW_AT_low_pc(0x00)
    2691                      .dwattr $C$DW$151, DW_AT_name("_DRV8353_readSpi")
    2692                      .dwattr $C$DW$151, DW_AT_TI_call
    2693              
    2694 00000439 7640'         LCR       #_DRV8353_readSpi     ; [CPU_] |190| 
         0000043a 010F 
    2695                      ; call occurs [#_DRV8353_readSpi] ; [] |190| 
    2696                      .dwpsn  file "C:/ti/motorware_drv8353/motorware_1_01_00_18/sw/drivers/drvic/drv8353/src/32b/f28x/f280
    2697 0000043b 900F          ANDB      AL,#0x0f              ; [CPU_] |195| 
    2698              $C$DW$152       .dwtag  DW_TAG_TI_branch
    2699                      .dwattr $C$DW$152, DW_AT_low_pc(0x00)
    2700                      .dwattr $C$DW$152, DW_AT_TI_return
    2701              
    2702 0000043c 0006          LRETR     ; [CPU_] 
    2703                      ; return occurs ; [] 
    2704                      .dwattr $C$DW$148, DW_AT_TI_end_file("C:/ti/motorware_drv8353/motorware_1_01_00_18/sw/drivers/drvic/d
    2705                      .dwattr $C$DW$148, DW_AT_TI_end_line(0xc4)
    2706                      .dwattr $C$DW$148, DW_AT_TI_end_column(0x01)
    2707                      .dwendentry
    2708                      .dwendtag $C$DW$148
    2709              
    2710 0000043d               .sect   ".text"
    2711                      .clink
    2712                      .global _DRV8353_getPeakSinkCurHS
    2713              
    2714              $C$DW$153       .dwtag  DW_TAG_subprogram
    2715                      .dwattr $C$DW$153, DW_AT_name("DRV8353_getPeakSinkCurHS")
    2716                      .dwattr $C$DW$153, DW_AT_low_pc(_DRV8353_getPeakSinkCurHS)
TMS320C2000 Assembler PC v15.12.3 Wed Jul 04 16:10:52 2018

Tools Copyright (c) 1996-2015 Texas Instruments Incorporated
C:\Users\a0393005\AppData\Local\Temp\1506410                         PAGE   53

    2717                      .dwattr $C$DW$153, DW_AT_high_pc(0x00)
    2718                      .dwattr $C$DW$153, DW_AT_TI_symbol_name("_DRV8353_getPeakSinkCurHS")
    2719                      .dwattr $C$DW$153, DW_AT_external
    2720                      .dwattr $C$DW$153, DW_AT_type(*$C$DW$T$31)
    2721                      .dwattr $C$DW$153, DW_AT_TI_begin_file("C:/ti/motorware_drv8353/motorware_1_01_00_18/sw/drivers/drvic
    2722                      .dwattr $C$DW$153, DW_AT_TI_begin_line(0x8f)
    2723                      .dwattr $C$DW$153, DW_AT_TI_begin_column(0x20)
    2724                      .dwattr $C$DW$153, DW_AT_TI_max_frame_size(-2)
    2725                      .dwpsn  file "C:/ti/motorware_drv8353/motorware_1_01_00_18/sw/drivers/drvic/drv8353/src/32b/f28x/f280
    2726              
    2727                      .dwfde $C$DW$CIE, _DRV8353_getPeakSinkCurHS
    2728              $C$DW$154       .dwtag  DW_TAG_formal_parameter
    2729                      .dwattr $C$DW$154, DW_AT_name("handle")
    2730                      .dwattr $C$DW$154, DW_AT_TI_symbol_name("_handle")
    2731                      .dwattr $C$DW$154, DW_AT_type(*$C$DW$T$85)
    2732                      .dwattr $C$DW$154, DW_AT_location[DW_OP_reg12]
    2733              
    2734              
    2735              ;***************************************************************
    2736              ;* FNAME: _DRV8353_getPeakSinkCurHS     FR SIZE:   0           *
    2737              ;*                                                             *
    2738              ;* FUNCTION ENVIRONMENT                                        *
    2739              ;*                                                             *
    2740              ;* FUNCTION PROPERTIES                                         *
    2741              ;*                            0 Parameter,  0 Auto,  0 SOE     *
    2742              ;***************************************************************
    2743              
    2744              _DRV8353_getPeakSinkCurHS:
    2745              ;* AL    assigned to _data
    2746              $C$DW$155       .dwtag  DW_TAG_variable
    2747                      .dwattr $C$DW$155, DW_AT_name("data")
    2748                      .dwattr $C$DW$155, DW_AT_TI_symbol_name("_data")
    2749                      .dwattr $C$DW$155, DW_AT_type(*$C$DW$T$69)
    2750                      .dwattr $C$DW$155, DW_AT_location[DW_OP_reg0]
    2751              
    2752                      .dwcfi  cfa_offset, -2
    2753                      .dwcfi  save_reg_to_mem, 26, 0
    2754                      .dwpsn  file "C:/ti/motorware_drv8353/motorware_1_01_00_18/sw/drivers/drvic/drv8353/src/32b/f28x/f280
    2755 0000043d 28A9          MOV       AL,#6144              ; [CPU_] |148| 
         0000043e 1800 
    2756              $C$DW$156       .dwtag  DW_TAG_TI_branch
    2757                      .dwattr $C$DW$156, DW_AT_low_pc(0x00)
    2758                      .dwattr $C$DW$156, DW_AT_name("_DRV8353_readSpi")
    2759                      .dwattr $C$DW$156, DW_AT_TI_call
    2760              
    2761 0000043f 7640'         LCR       #_DRV8353_readSpi     ; [CPU_] |148| 
         00000440 010F 
    2762                      ; call occurs [#_DRV8353_readSpi] ; [] |148| 
    2763                      .dwpsn  file "C:/ti/motorware_drv8353/motorware_1_01_00_18/sw/drivers/drvic/drv8353/src/32b/f28x/f280
    2764 00000441 900F          ANDB      AL,#0x0f              ; [CPU_] |153| 
    2765              $C$DW$157       .dwtag  DW_TAG_TI_branch
    2766                      .dwattr $C$DW$157, DW_AT_low_pc(0x00)
    2767                      .dwattr $C$DW$157, DW_AT_TI_return
    2768              
    2769 00000442 0006          LRETR     ; [CPU_] 
TMS320C2000 Assembler PC v15.12.3 Wed Jul 04 16:10:52 2018

Tools Copyright (c) 1996-2015 Texas Instruments Incorporated
C:\Users\a0393005\AppData\Local\Temp\1506410                         PAGE   54

    2770                      ; return occurs ; [] 
    2771                      .dwattr $C$DW$153, DW_AT_TI_end_file("C:/ti/motorware_drv8353/motorware_1_01_00_18/sw/drivers/drvic/d
    2772                      .dwattr $C$DW$153, DW_AT_TI_end_line(0x9a)
    2773                      .dwattr $C$DW$153, DW_AT_TI_end_column(0x01)
    2774                      .dwendentry
    2775                      .dwendtag $C$DW$153
    2776              
    2777 00000443               .sect   ".text"
    2778                      .clink
    2779                      .global _DRV8353_getDeadTime
    2780              
    2781              $C$DW$158       .dwtag  DW_TAG_subprogram
    2782                      .dwattr $C$DW$158, DW_AT_name("DRV8353_getDeadTime")
    2783                      .dwattr $C$DW$158, DW_AT_low_pc(_DRV8353_getDeadTime)
    2784                      .dwattr $C$DW$158, DW_AT_high_pc(0x00)
    2785                      .dwattr $C$DW$158, DW_AT_TI_symbol_name("_DRV8353_getDeadTime")
    2786                      .dwattr $C$DW$158, DW_AT_external
    2787                      .dwattr $C$DW$158, DW_AT_type(*$C$DW$T$51)
    2788                      .dwattr $C$DW$158, DW_AT_TI_begin_file("C:/ti/motorware_drv8353/motorware_1_01_00_18/sw/drivers/drvic
    2789                      .dwattr $C$DW$158, DW_AT_TI_begin_line(0xf1)
    2790                      .dwattr $C$DW$158, DW_AT_TI_begin_column(0x1b)
    2791                      .dwattr $C$DW$158, DW_AT_TI_max_frame_size(-2)
    2792                      .dwpsn  file "C:/ti/motorware_drv8353/motorware_1_01_00_18/sw/drivers/drvic/drv8353/src/32b/f28x/f280
    2793              
    2794                      .dwfde $C$DW$CIE, _DRV8353_getDeadTime
    2795              $C$DW$159       .dwtag  DW_TAG_formal_parameter
    2796                      .dwattr $C$DW$159, DW_AT_name("handle")
    2797                      .dwattr $C$DW$159, DW_AT_TI_symbol_name("_handle")
    2798                      .dwattr $C$DW$159, DW_AT_type(*$C$DW$T$85)
    2799                      .dwattr $C$DW$159, DW_AT_location[DW_OP_reg12]
    2800              
    2801              
    2802              ;***************************************************************
    2803              ;* FNAME: _DRV8353_getDeadTime          FR SIZE:   0           *
    2804              ;*                                                             *
    2805              ;* FUNCTION ENVIRONMENT                                        *
    2806              ;*                                                             *
    2807              ;* FUNCTION PROPERTIES                                         *
    2808              ;*                            0 Parameter,  0 Auto,  0 SOE     *
    2809              ;***************************************************************
    2810              
    2811              _DRV8353_getDeadTime:
    2812              ;* AL    assigned to _data
    2813              $C$DW$160       .dwtag  DW_TAG_variable
    2814                      .dwattr $C$DW$160, DW_AT_name("data")
    2815                      .dwattr $C$DW$160, DW_AT_TI_symbol_name("_data")
    2816                      .dwattr $C$DW$160, DW_AT_type(*$C$DW$T$69)
    2817                      .dwattr $C$DW$160, DW_AT_location[DW_OP_reg0]
    2818              
    2819                      .dwcfi  cfa_offset, -2
    2820                      .dwcfi  save_reg_to_mem, 26, 0
    2821                      .dwpsn  file "C:/ti/motorware_drv8353/motorware_1_01_00_18/sw/drivers/drvic/drv8353/src/32b/f28x/f280
    2822 00000443 28A9          MOV       AL,#10240             ; [CPU_] |246| 
         00000444 2800 
    2823              $C$DW$161       .dwtag  DW_TAG_TI_branch
TMS320C2000 Assembler PC v15.12.3 Wed Jul 04 16:10:52 2018

Tools Copyright (c) 1996-2015 Texas Instruments Incorporated
C:\Users\a0393005\AppData\Local\Temp\1506410                         PAGE   55

    2824                      .dwattr $C$DW$161, DW_AT_low_pc(0x00)
    2825                      .dwattr $C$DW$161, DW_AT_name("_DRV8353_readSpi")
    2826                      .dwattr $C$DW$161, DW_AT_TI_call
    2827              
    2828 00000445 7640'         LCR       #_DRV8353_readSpi     ; [CPU_] |246| 
         00000446 010F 
    2829                      ; call occurs [#_DRV8353_readSpi] ; [] |246| 
    2830                      .dwpsn  file "C:/ti/motorware_drv8353/motorware_1_01_00_18/sw/drivers/drvic/drv8353/src/32b/f28x/f280
    2831 00000447 18A9          AND       AL,#0x0300            ; [CPU_] |251| 
         00000448 0300 
    2832              $C$DW$162       .dwtag  DW_TAG_TI_branch
    2833                      .dwattr $C$DW$162, DW_AT_low_pc(0x00)
    2834                      .dwattr $C$DW$162, DW_AT_TI_return
    2835              
    2836 00000449 0006          LRETR     ; [CPU_] 
    2837                      ; return occurs ; [] 
    2838                      .dwattr $C$DW$158, DW_AT_TI_end_file("C:/ti/motorware_drv8353/motorware_1_01_00_18/sw/drivers/drvic/d
    2839                      .dwattr $C$DW$158, DW_AT_TI_end_line(0xfc)
    2840                      .dwattr $C$DW$158, DW_AT_TI_end_column(0x01)
    2841                      .dwendentry
    2842                      .dwendtag $C$DW$158
    2843              
    2844 0000044a               .sect   ".text"
    2845                      .clink
    2846                      .global _DRV8353_enable
    2847              
    2848              $C$DW$163       .dwtag  DW_TAG_subprogram
    2849                      .dwattr $C$DW$163, DW_AT_name("DRV8353_enable")
    2850                      .dwattr $C$DW$163, DW_AT_low_pc(_DRV8353_enable)
    2851                      .dwattr $C$DW$163, DW_AT_high_pc(0x00)
    2852                      .dwattr $C$DW$163, DW_AT_TI_symbol_name("_DRV8353_enable")
    2853                      .dwattr $C$DW$163, DW_AT_external
    2854                      .dwattr $C$DW$163, DW_AT_TI_begin_file("C:/ti/motorware_drv8353/motorware_1_01_00_18/sw/drivers/drvic
    2855                      .dwattr $C$DW$163, DW_AT_TI_begin_line(0x57)
    2856                      .dwattr $C$DW$163, DW_AT_TI_begin_column(0x06)
    2857                      .dwattr $C$DW$163, DW_AT_TI_max_frame_size(-4)
    2858                      .dwpsn  file "C:/ti/motorware_drv8353/motorware_1_01_00_18/sw/drivers/drvic/drv8353/src/32b/f28x/f280
    2859              
    2860                      .dwfde $C$DW$CIE, _DRV8353_enable
    2861              $C$DW$164       .dwtag  DW_TAG_variable
    2862                      .dwattr $C$DW$164, DW_AT_name("enableWaitTimeOut")
    2863                      .dwattr $C$DW$164, DW_AT_TI_symbol_name("_enableWaitTimeOut$1")
    2864                      .dwattr $C$DW$164, DW_AT_type(*$C$DW$T$73)
    2865                      .dwattr $C$DW$164, DW_AT_location[DW_OP_addr _enableWaitTimeOut$1]
    2866              
    2867              $C$DW$165       .dwtag  DW_TAG_formal_parameter
    2868                      .dwattr $C$DW$165, DW_AT_name("handle")
    2869                      .dwattr $C$DW$165, DW_AT_TI_symbol_name("_handle")
    2870                      .dwattr $C$DW$165, DW_AT_type(*$C$DW$T$85)
    2871                      .dwattr $C$DW$165, DW_AT_location[DW_OP_reg12]
    2872              
    2873              
    2874              ;***************************************************************
    2875              ;* FNAME: _DRV8353_enable               FR SIZE:   2           *
    2876              ;*                                                             *
TMS320C2000 Assembler PC v15.12.3 Wed Jul 04 16:10:52 2018

Tools Copyright (c) 1996-2015 Texas Instruments Incorporated
C:\Users\a0393005\AppData\Local\Temp\1506410                         PAGE   56

    2877              ;* FUNCTION ENVIRONMENT                                        *
    2878              ;*                                                             *
    2879              ;* FUNCTION PROPERTIES                                         *
    2880              ;*                            0 Parameter,  0 Auto,  2 SOE     *
    2881              ;***************************************************************
    2882              
    2883              _DRV8353_enable:
    2884              ;* AR1   assigned to _handle
    2885              $C$DW$166       .dwtag  DW_TAG_variable
    2886                      .dwattr $C$DW$166, DW_AT_name("handle")
    2887                      .dwattr $C$DW$166, DW_AT_TI_symbol_name("_handle")
    2888                      .dwattr $C$DW$166, DW_AT_type(*$C$DW$T$115)
    2889                      .dwattr $C$DW$166, DW_AT_location[DW_OP_reg6]
    2890              
    2891              ;* AR6   assigned to $O$L1
    2892                      .dwcfi  cfa_offset, -2
    2893                      .dwcfi  save_reg_to_mem, 26, 0
    2894 0000044a B2BD          MOVL      *SP++,XAR1            ; [CPU_] 
    2895                      .dwcfi  save_reg_to_mem, 7, 2
    2896                      .dwcfi  cfa_offset, -4
    2897 0000044b 8BA4          MOVL      XAR1,XAR4             ; [CPU_] |88| 
    2898                      .dwpsn  file "C:/ti/motorware_drv8353/motorware_1_01_00_18/sw/drivers/drvic/drv8353/src/32b/f28x/f280
    2899 0000044c 92E1          MOV       AL,*+XAR1[4]          ; [CPU_] |94| 
    2900 0000044d 8AD1          MOVL      XAR4,*+XAR1[2]        ; [CPU_] |94| 
    2901              $C$DW$167       .dwtag  DW_TAG_TI_branch
    2902                      .dwattr $C$DW$167, DW_AT_low_pc(0x00)
    2903                      .dwattr $C$DW$167, DW_AT_name("_GPIO_setHigh")
    2904                      .dwattr $C$DW$167, DW_AT_TI_call
    2905              
    2906 0000044e 7640!         LCR       #_GPIO_setHigh        ; [CPU_] |94| 
         0000044f 0000 
    2907                      ; call occurs [#_GPIO_setHigh] ; [] |94| 
    2908 00000450 761F-         MOVW      DP,#_enableWaitTimeOut$1 ; [CPU_U] 
         00000451 0000 
    2909                      .dwpsn  file "C:/ti/motorware_drv8353/motorware_1_01_00_18/sw/drivers/drvic/drv8353/src/32b/f28x/f280
    2910 00000452 2B01-         MOV       @_enableWaitTimeOut$1,#0 ; [CPU_] |97| 
    2911 00000453 761F!         MOVW      DP,#_gDeviceVariant   ; [CPU_U] 
         00000454 0000 
    2912                      .dwpsn  file "C:/ti/motorware_drv8353/motorware_1_01_00_18/sw/drivers/drvic/drv8353/src/32b/f28x/f280
    2913 00000455 9200!         MOV       AL,@_gDeviceVariant   ; [CPU_] |99| 
    2914 00000456 6012          B         $C$L15,NEQ            ; [CPU_] |99| 
    2915                      ; branchcc occurs ; [] |99| 
    2916                      .dwpsn  file "C:/ti/motorware_drv8353/motorware_1_01_00_18/sw/drivers/drvic/drv8353/src/32b/f28x/f280
    2917 00000457 6F06          B         $C$L13,UNC            ; [CPU_] |113| 
    2918                      ; branch occurs ; [] |113| 
    2919 00000458       $C$L12:    
    2920                      .dwpsn  file "C:/ti/motorware_drv8353/motorware_1_01_00_18/sw/drivers/drvic/drv8353/src/32b/f28x/f280
    2921 00000458 0A01-         INC       @_enableWaitTimeOut$1 ; [CPU_] |115| 
    2922 00000459 1B01-         CMP       @_enableWaitTimeOut$1,#999 ; [CPU_] |115| 
         0000045a 03E7 
    2923                      .dwpsn  file "C:/ti/motorware_drv8353/motorware_1_01_00_18/sw/drivers/drvic/drv8353/src/32b/f28x/f280
    2924 0000045b 56B6          MOVB      *+XAR1[6],#1,HI       ; [CPU_] |117| 
         0000045c 01F1 
    2925 0000045d       $C$L13:    
    2926 0000045d 761F-         MOVW      DP,#_enableWaitTimeOut$1 ; [CPU_U] 
TMS320C2000 Assembler PC v15.12.3 Wed Jul 04 16:10:52 2018

Tools Copyright (c) 1996-2015 Texas Instruments Incorporated
C:\Users\a0393005\AppData\Local\Temp\1506410                         PAGE   57

         0000045e 0000 
    2927                      .dwpsn  file "C:/ti/motorware_drv8353/motorware_1_01_00_18/sw/drivers/drvic/drv8353/src/32b/f28x/f280
    2928 0000045f 1B01-         CMP       @_enableWaitTimeOut$1,#1000 ; [CPU_] |113| 
         00000460 03E8 
    2929 00000461 68F7          B         $C$L12,LO             ; [CPU_] |113| 
    2930                      ; branchcc occurs ; [] |113| 
    2931 00000462 6F11          B         $C$L16,UNC            ; [CPU_] |113| 
    2932                      ; branch occurs ; [] |113| 
    2933 00000463       $C$L14:    
    2934                      .dwpsn  file "C:/ti/motorware_drv8353/motorware_1_01_00_18/sw/drivers/drvic/drv8353/src/32b/f28x/f280
    2935 00000463 0A01-         INC       @_enableWaitTimeOut$1 ; [CPU_] |104| 
    2936 00000464 1B01-         CMP       @_enableWaitTimeOut$1,#999 ; [CPU_] |104| 
         00000465 03E7 
    2937                      .dwpsn  file "C:/ti/motorware_drv8353/motorware_1_01_00_18/sw/drivers/drvic/drv8353/src/32b/f28x/f280
    2938 00000466 56B6          MOVB      *+XAR1[6],#1,HI       ; [CPU_] |106| 
         00000467 01F1 
    2939 00000468       $C$L15:    
    2940                      .dwpsn  file "C:/ti/motorware_drv8353/motorware_1_01_00_18/sw/drivers/drvic/drv8353/src/32b/f28x/f280
    2941 00000468 8AA1          MOVL      XAR4,XAR1             ; [CPU_] |109| 
    2942 00000469 9A00          MOVB      AL,#0                 ; [CPU_] |109| 
    2943              $C$DW$168       .dwtag  DW_TAG_TI_branch
    2944                      .dwattr $C$DW$168, DW_AT_low_pc(0x00)
    2945                      .dwattr $C$DW$168, DW_AT_name("_DRV8353_readSpi")
    2946                      .dwattr $C$DW$168, DW_AT_TI_call
    2947              
    2948 0000046a 7640'         LCR       #_DRV8353_readSpi     ; [CPU_] |109| 
         0000046b 010F 
    2949                      ; call occurs [#_DRV8353_readSpi] ; [] |109| 
    2950 0000046c 4AA9          TBIT      AL,#10                ; [CPU_] |109| 
    2951 0000046d 6C06          B         $C$L16,NTC            ; [CPU_] |109| 
    2952                      ; branchcc occurs ; [] |109| 
    2953 0000046e 761F-         MOVW      DP,#_enableWaitTimeOut$1 ; [CPU_U] 
         0000046f 0000 
    2954 00000470 1B01-         CMP       @_enableWaitTimeOut$1,#1000 ; [CPU_] |109| 
         00000471 03E8 
    2955 00000472 68F1          B         $C$L14,LO             ; [CPU_] |109| 
    2956                      ; branchcc occurs ; [] |109| 
    2957 00000473       $C$L16:    
    2958 00000473 76BF          MOVL      XAR6,#-2              ; [CPU_] 
         00000474 FFFE 
    2959 00000475       $C$L17:    
    2960 00000475 7700   NOP
    2961                      .dwpsn  file "C:/ti/motorware_drv8353/motorware_1_01_00_18/sw/drivers/drvic/drv8353/src/32b/f28x/f280
    2962 00000476 000E          BANZ      $C$L17,AR6--          ; [CPU_] |122| 
         00000477 FFFF 
    2963                      ; branchcc occurs ; [] |122| 
    2964 00000478 8BBE          MOVL      XAR1,*--SP            ; [CPU_] 
    2965                      .dwcfi  cfa_offset, -2
    2966                      .dwcfi  restore_reg, 7
    2967 00000479 FF69          SPM       #0                    ; [CPU_] 
    2968              $C$DW$169       .dwtag  DW_TAG_TI_branch
    2969                      .dwattr $C$DW$169, DW_AT_low_pc(0x00)
    2970                      .dwattr $C$DW$169, DW_AT_TI_return
    2971              
    2972 0000047a 0006          LRETR     ; [CPU_] 
TMS320C2000 Assembler PC v15.12.3 Wed Jul 04 16:10:52 2018

Tools Copyright (c) 1996-2015 Texas Instruments Incorporated
C:\Users\a0393005\AppData\Local\Temp\1506410                         PAGE   58

    2973                      ; return occurs ; [] 
    2974                      .dwattr $C$DW$163, DW_AT_TI_end_file("C:/ti/motorware_drv8353/motorware_1_01_00_18/sw/drivers/drvic/d
    2975                      .dwattr $C$DW$163, DW_AT_TI_end_line(0x7e)
    2976                      .dwattr $C$DW$163, DW_AT_TI_end_column(0x01)
    2977                      .dwendentry
    2978                      .dwendtag $C$DW$163
    2979              
    2980              ;**************************************************************
    2981              ;* UNDEFINED EXTERNAL REFERENCES                              *
    2982              ;**************************************************************
    2983                      .global _GPIO_setLow
    2984                      .global _SPI_resetRxFifo
    2985                      .global _GPIO_setHigh
    2986                      .global _SPI_enableRxFifo
    2987                      .global _gDeviceVariant
    2988                      .global _SPI_getRxFifoStatus
    2989              
    2990              ;***************************************************************
    2991              ;* TYPE INFORMATION                                            *
    2992              ;***************************************************************
    2993              
    2994              $C$DW$T$23      .dwtag  DW_TAG_enumeration_type
    2995                      .dwattr $C$DW$T$23, DW_AT_byte_size(0x01)
    2996              $C$DW$170       .dwtag  DW_TAG_enumerator
    2997                      .dwattr $C$DW$170, DW_AT_name("GPIO_Number_0")
    2998                      .dwattr $C$DW$170, DW_AT_const_value(0x00)
    2999              
    3000              $C$DW$171       .dwtag  DW_TAG_enumerator
    3001                      .dwattr $C$DW$171, DW_AT_name("GPIO_Number_1")
    3002                      .dwattr $C$DW$171, DW_AT_const_value(0x01)
    3003              
    3004              $C$DW$172       .dwtag  DW_TAG_enumerator
    3005                      .dwattr $C$DW$172, DW_AT_name("GPIO_Number_2")
    3006                      .dwattr $C$DW$172, DW_AT_const_value(0x02)
    3007              
    3008              $C$DW$173       .dwtag  DW_TAG_enumerator
    3009                      .dwattr $C$DW$173, DW_AT_name("GPIO_Number_3")
    3010                      .dwattr $C$DW$173, DW_AT_const_value(0x03)
    3011              
    3012              $C$DW$174       .dwtag  DW_TAG_enumerator
    3013                      .dwattr $C$DW$174, DW_AT_name("GPIO_Number_4")
    3014                      .dwattr $C$DW$174, DW_AT_const_value(0x04)
    3015              
    3016              $C$DW$175       .dwtag  DW_TAG_enumerator
    3017                      .dwattr $C$DW$175, DW_AT_name("GPIO_Number_5")
    3018                      .dwattr $C$DW$175, DW_AT_const_value(0x05)
    3019              
    3020              $C$DW$176       .dwtag  DW_TAG_enumerator
    3021                      .dwattr $C$DW$176, DW_AT_name("GPIO_Number_6")
    3022                      .dwattr $C$DW$176, DW_AT_const_value(0x06)
    3023              
    3024              $C$DW$177       .dwtag  DW_TAG_enumerator
    3025                      .dwattr $C$DW$177, DW_AT_name("GPIO_Number_7")
    3026                      .dwattr $C$DW$177, DW_AT_const_value(0x07)
    3027              
TMS320C2000 Assembler PC v15.12.3 Wed Jul 04 16:10:52 2018

Tools Copyright (c) 1996-2015 Texas Instruments Incorporated
C:\Users\a0393005\AppData\Local\Temp\1506410                         PAGE   59

    3028              $C$DW$178       .dwtag  DW_TAG_enumerator
    3029                      .dwattr $C$DW$178, DW_AT_name("GPIO_Rsvd_8")
    3030                      .dwattr $C$DW$178, DW_AT_const_value(0x08)
    3031              
    3032              $C$DW$179       .dwtag  DW_TAG_enumerator
    3033                      .dwattr $C$DW$179, DW_AT_name("GPIO_Rsvd_9")
    3034                      .dwattr $C$DW$179, DW_AT_const_value(0x09)
    3035              
    3036              $C$DW$180       .dwtag  DW_TAG_enumerator
    3037                      .dwattr $C$DW$180, DW_AT_name("GPIO_Rsvd_10")
    3038                      .dwattr $C$DW$180, DW_AT_const_value(0x0a)
    3039              
    3040              $C$DW$181       .dwtag  DW_TAG_enumerator
    3041                      .dwattr $C$DW$181, DW_AT_name("GPIO_Rsvd_11")
    3042                      .dwattr $C$DW$181, DW_AT_const_value(0x0b)
    3043              
    3044              $C$DW$182       .dwtag  DW_TAG_enumerator
    3045                      .dwattr $C$DW$182, DW_AT_name("GPIO_Number_12")
    3046                      .dwattr $C$DW$182, DW_AT_const_value(0x0c)
    3047              
    3048              $C$DW$183       .dwtag  DW_TAG_enumerator
    3049                      .dwattr $C$DW$183, DW_AT_name("GPIO_Rsvd_13")
    3050                      .dwattr $C$DW$183, DW_AT_const_value(0x0d)
    3051              
    3052              $C$DW$184       .dwtag  DW_TAG_enumerator
    3053                      .dwattr $C$DW$184, DW_AT_name("GPIO_Rsvd_14")
    3054                      .dwattr $C$DW$184, DW_AT_const_value(0x0e)
    3055              
    3056              $C$DW$185       .dwtag  DW_TAG_enumerator
    3057                      .dwattr $C$DW$185, DW_AT_name("GPIO_Rsvd_15")
    3058                      .dwattr $C$DW$185, DW_AT_const_value(0x0f)
    3059              
    3060              $C$DW$186       .dwtag  DW_TAG_enumerator
    3061                      .dwattr $C$DW$186, DW_AT_name("GPIO_Number_16")
    3062                      .dwattr $C$DW$186, DW_AT_const_value(0x10)
    3063              
    3064              $C$DW$187       .dwtag  DW_TAG_enumerator
    3065                      .dwattr $C$DW$187, DW_AT_name("GPIO_Number_17")
    3066                      .dwattr $C$DW$187, DW_AT_const_value(0x11)
    3067              
    3068              $C$DW$188       .dwtag  DW_TAG_enumerator
    3069                      .dwattr $C$DW$188, DW_AT_name("GPIO_Number_18")
    3070                      .dwattr $C$DW$188, DW_AT_const_value(0x12)
    3071              
    3072              $C$DW$189       .dwtag  DW_TAG_enumerator
    3073                      .dwattr $C$DW$189, DW_AT_name("GPIO_Number_19")
    3074                      .dwattr $C$DW$189, DW_AT_const_value(0x13)
    3075              
    3076              $C$DW$190       .dwtag  DW_TAG_enumerator
    3077                      .dwattr $C$DW$190, DW_AT_name("GPIO_Rsvd_20")
    3078                      .dwattr $C$DW$190, DW_AT_const_value(0x14)
    3079              
    3080              $C$DW$191       .dwtag  DW_TAG_enumerator
    3081                      .dwattr $C$DW$191, DW_AT_name("GPIO_Rsvd_21")
    3082                      .dwattr $C$DW$191, DW_AT_const_value(0x15)
TMS320C2000 Assembler PC v15.12.3 Wed Jul 04 16:10:52 2018

Tools Copyright (c) 1996-2015 Texas Instruments Incorporated
C:\Users\a0393005\AppData\Local\Temp\1506410                         PAGE   60

    3083              
    3084              $C$DW$192       .dwtag  DW_TAG_enumerator
    3085                      .dwattr $C$DW$192, DW_AT_name("GPIO_Rsvd_22")
    3086                      .dwattr $C$DW$192, DW_AT_const_value(0x16)
    3087              
    3088              $C$DW$193       .dwtag  DW_TAG_enumerator
    3089                      .dwattr $C$DW$193, DW_AT_name("GPIO_Rsvd_23")
    3090                      .dwattr $C$DW$193, DW_AT_const_value(0x17)
    3091              
    3092              $C$DW$194       .dwtag  DW_TAG_enumerator
    3093                      .dwattr $C$DW$194, DW_AT_name("GPIO_Rsvd_24")
    3094                      .dwattr $C$DW$194, DW_AT_const_value(0x18)
    3095              
    3096              $C$DW$195       .dwtag  DW_TAG_enumerator
    3097                      .dwattr $C$DW$195, DW_AT_name("GPIO_Rsvd_25")
    3098                      .dwattr $C$DW$195, DW_AT_const_value(0x19)
    3099              
    3100              $C$DW$196       .dwtag  DW_TAG_enumerator
    3101                      .dwattr $C$DW$196, DW_AT_name("GPIO_Rsvd_26")
    3102                      .dwattr $C$DW$196, DW_AT_const_value(0x1a)
    3103              
    3104              $C$DW$197       .dwtag  DW_TAG_enumerator
    3105                      .dwattr $C$DW$197, DW_AT_name("GPIO_Rsvd_27")
    3106                      .dwattr $C$DW$197, DW_AT_const_value(0x1b)
    3107              
    3108              $C$DW$198       .dwtag  DW_TAG_enumerator
    3109                      .dwattr $C$DW$198, DW_AT_name("GPIO_Number_28")
    3110                      .dwattr $C$DW$198, DW_AT_const_value(0x1c)
    3111              
    3112              $C$DW$199       .dwtag  DW_TAG_enumerator
    3113                      .dwattr $C$DW$199, DW_AT_name("GPIO_Number_29")
    3114                      .dwattr $C$DW$199, DW_AT_const_value(0x1d)
    3115              
    3116              $C$DW$200       .dwtag  DW_TAG_enumerator
    3117                      .dwattr $C$DW$200, DW_AT_name("GPIO_Rsvd_30")
    3118                      .dwattr $C$DW$200, DW_AT_const_value(0x1e)
    3119              
    3120              $C$DW$201       .dwtag  DW_TAG_enumerator
    3121                      .dwattr $C$DW$201, DW_AT_name("GPIO_Rsvd_31")
    3122                      .dwattr $C$DW$201, DW_AT_const_value(0x1f)
    3123              
    3124              $C$DW$202       .dwtag  DW_TAG_enumerator
    3125                      .dwattr $C$DW$202, DW_AT_name("GPIO_Number_32")
    3126                      .dwattr $C$DW$202, DW_AT_const_value(0x20)
    3127              
    3128              $C$DW$203       .dwtag  DW_TAG_enumerator
    3129                      .dwattr $C$DW$203, DW_AT_name("GPIO_Number_33")
    3130                      .dwattr $C$DW$203, DW_AT_const_value(0x21)
    3131              
    3132              $C$DW$204       .dwtag  DW_TAG_enumerator
    3133                      .dwattr $C$DW$204, DW_AT_name("GPIO_Number_34")
    3134                      .dwattr $C$DW$204, DW_AT_const_value(0x22)
    3135              
    3136              $C$DW$205       .dwtag  DW_TAG_enumerator
    3137                      .dwattr $C$DW$205, DW_AT_name("GPIO_Number_35")
TMS320C2000 Assembler PC v15.12.3 Wed Jul 04 16:10:52 2018

Tools Copyright (c) 1996-2015 Texas Instruments Incorporated
C:\Users\a0393005\AppData\Local\Temp\1506410                         PAGE   61

    3138                      .dwattr $C$DW$205, DW_AT_const_value(0x23)
    3139              
    3140              $C$DW$206       .dwtag  DW_TAG_enumerator
    3141                      .dwattr $C$DW$206, DW_AT_name("GPIO_Number_36")
    3142                      .dwattr $C$DW$206, DW_AT_const_value(0x24)
    3143              
    3144              $C$DW$207       .dwtag  DW_TAG_enumerator
    3145                      .dwattr $C$DW$207, DW_AT_name("GPIO_Number_37")
    3146                      .dwattr $C$DW$207, DW_AT_const_value(0x25)
    3147              
    3148              $C$DW$208       .dwtag  DW_TAG_enumerator
    3149                      .dwattr $C$DW$208, DW_AT_name("GPIO_Number_38")
    3150                      .dwattr $C$DW$208, DW_AT_const_value(0x26)
    3151              
    3152              $C$DW$209       .dwtag  DW_TAG_enumerator
    3153                      .dwattr $C$DW$209, DW_AT_name("GPIO_numGpios")
    3154                      .dwattr $C$DW$209, DW_AT_const_value(0x27)
    3155              
    3156                      .dwendtag $C$DW$T$23
    3157              
    3158              $C$DW$T$24      .dwtag  DW_TAG_typedef
    3159                      .dwattr $C$DW$T$24, DW_AT_name("GPIO_Number_e")
    3160                      .dwattr $C$DW$T$24, DW_AT_type(*$C$DW$T$23)
    3161                      .dwattr $C$DW$T$24, DW_AT_language(DW_LANG_C)
    3162              
    3163              $C$DW$210       .dwtag  DW_TAG_TI_far_type
    3164                      .dwattr $C$DW$210, DW_AT_type(*$C$DW$T$24)
    3165              
    3166              $C$DW$T$82      .dwtag  DW_TAG_const_type
    3167                      .dwattr $C$DW$T$82, DW_AT_type(*$C$DW$210)
    3168              
    3169              $C$DW$211       .dwtag  DW_TAG_TI_far_type
    3170                      .dwattr $C$DW$211, DW_AT_type(*$C$DW$T$24)
    3171              
    3172              $C$DW$T$83      .dwtag  DW_TAG_const_type
    3173                      .dwattr $C$DW$T$83, DW_AT_type(*$C$DW$211)
    3174              
    3175              
    3176              $C$DW$T$27      .dwtag  DW_TAG_enumeration_type
    3177                      .dwattr $C$DW$T$27, DW_AT_byte_size(0x01)
    3178              $C$DW$212       .dwtag  DW_TAG_enumerator
    3179                      .dwattr $C$DW$212, DW_AT_name("PwmMode_6")
    3180                      .dwattr $C$DW$212, DW_AT_const_value(0x00)
    3181              
    3182              $C$DW$213       .dwtag  DW_TAG_enumerator
    3183                      .dwattr $C$DW$213, DW_AT_name("PwmMode_3")
    3184                      .dwattr $C$DW$213, DW_AT_const_value(0x20)
    3185              
    3186              $C$DW$214       .dwtag  DW_TAG_enumerator
    3187                      .dwattr $C$DW$214, DW_AT_name("PwmMode_1")
    3188                      .dwattr $C$DW$214, DW_AT_const_value(0x40)
    3189              
    3190              $C$DW$215       .dwtag  DW_TAG_enumerator
    3191                      .dwattr $C$DW$215, DW_AT_name("PwmMode_Ind")
    3192                      .dwattr $C$DW$215, DW_AT_const_value(0x60)
TMS320C2000 Assembler PC v15.12.3 Wed Jul 04 16:10:52 2018

Tools Copyright (c) 1996-2015 Texas Instruments Incorporated
C:\Users\a0393005\AppData\Local\Temp\1506410                         PAGE   62

    3193              
    3194                      .dwendtag $C$DW$T$27
    3195              
    3196              $C$DW$T$28      .dwtag  DW_TAG_typedef
    3197                      .dwattr $C$DW$T$28, DW_AT_name("DRV8353_CTRL02_PwmMode_e")
    3198                      .dwattr $C$DW$T$28, DW_AT_type(*$C$DW$T$27)
    3199                      .dwattr $C$DW$T$28, DW_AT_language(DW_LANG_C)
    3200              
    3201              
    3202              $C$DW$T$30      .dwtag  DW_TAG_enumeration_type
    3203                      .dwattr $C$DW$T$30, DW_AT_byte_size(0x01)
    3204              $C$DW$216       .dwtag  DW_TAG_enumerator
    3205                      .dwattr $C$DW$216, DW_AT_name("ISink_HS_0p100_A")
    3206                      .dwattr $C$DW$216, DW_AT_const_value(0x00)
    3207              
    3208              $C$DW$217       .dwtag  DW_TAG_enumerator
    3209                      .dwattr $C$DW$217, DW_AT_name("ISink_HS_0p10_A")
    3210                      .dwattr $C$DW$217, DW_AT_const_value(0x01)
    3211              
    3212              $C$DW$218       .dwtag  DW_TAG_enumerator
    3213                      .dwattr $C$DW$218, DW_AT_name("ISink_HS_0p200_A")
    3214                      .dwattr $C$DW$218, DW_AT_const_value(0x02)
    3215              
    3216              $C$DW$219       .dwtag  DW_TAG_enumerator
    3217                      .dwattr $C$DW$219, DW_AT_name("ISink_HS_0p300_A")
    3218                      .dwattr $C$DW$219, DW_AT_const_value(0x03)
    3219              
    3220              $C$DW$220       .dwtag  DW_TAG_enumerator
    3221                      .dwattr $C$DW$220, DW_AT_name("ISink_HS_0p600_A")
    3222                      .dwattr $C$DW$220, DW_AT_const_value(0x04)
    3223              
    3224              $C$DW$221       .dwtag  DW_TAG_enumerator
    3225                      .dwattr $C$DW$221, DW_AT_name("ISink_HS_0p700_A")
    3226                      .dwattr $C$DW$221, DW_AT_const_value(0x05)
    3227              
    3228              $C$DW$222       .dwtag  DW_TAG_enumerator
    3229                      .dwattr $C$DW$222, DW_AT_name("ISink_HS_0p800_A")
    3230                      .dwattr $C$DW$222, DW_AT_const_value(0x06)
    3231              
    3232              $C$DW$223       .dwtag  DW_TAG_enumerator
    3233                      .dwattr $C$DW$223, DW_AT_name("ISink_HS_0p900_A")
    3234                      .dwattr $C$DW$223, DW_AT_const_value(0x07)
    3235              
    3236              $C$DW$224       .dwtag  DW_TAG_enumerator
    3237                      .dwattr $C$DW$224, DW_AT_name("ISink_HS_0p1100_A")
    3238                      .dwattr $C$DW$224, DW_AT_const_value(0x08)
    3239              
    3240              $C$DW$225       .dwtag  DW_TAG_enumerator
    3241                      .dwattr $C$DW$225, DW_AT_name("ISink_HS_0p1200_A")
    3242                      .dwattr $C$DW$225, DW_AT_const_value(0x09)
    3243              
    3244              $C$DW$226       .dwtag  DW_TAG_enumerator
    3245                      .dwattr $C$DW$226, DW_AT_name("ISink_HS_0p1300_A")
    3246                      .dwattr $C$DW$226, DW_AT_const_value(0x0a)
    3247              
TMS320C2000 Assembler PC v15.12.3 Wed Jul 04 16:10:52 2018

Tools Copyright (c) 1996-2015 Texas Instruments Incorporated
C:\Users\a0393005\AppData\Local\Temp\1506410                         PAGE   63

    3248              $C$DW$227       .dwtag  DW_TAG_enumerator
    3249                      .dwattr $C$DW$227, DW_AT_name("ISink_HS_0p1400_A")
    3250                      .dwattr $C$DW$227, DW_AT_const_value(0x0b)
    3251              
    3252              $C$DW$228       .dwtag  DW_TAG_enumerator
    3253                      .dwattr $C$DW$228, DW_AT_name("ISink_HS_0p1700_A")
    3254                      .dwattr $C$DW$228, DW_AT_const_value(0x0c)
    3255              
    3256              $C$DW$229       .dwtag  DW_TAG_enumerator
    3257                      .dwattr $C$DW$229, DW_AT_name("ISink_HS_0p1800_A")
    3258                      .dwattr $C$DW$229, DW_AT_const_value(0x0d)
    3259              
    3260              $C$DW$230       .dwtag  DW_TAG_enumerator
    3261                      .dwattr $C$DW$230, DW_AT_name("ISink_HS_0p1900_A")
    3262                      .dwattr $C$DW$230, DW_AT_const_value(0x0e)
    3263              
    3264              $C$DW$231       .dwtag  DW_TAG_enumerator
    3265                      .dwattr $C$DW$231, DW_AT_name("ISink_HS_0p2000_A")
    3266                      .dwattr $C$DW$231, DW_AT_const_value(0x0f)
    3267              
    3268                      .dwendtag $C$DW$T$30
    3269              
    3270              $C$DW$T$31      .dwtag  DW_TAG_typedef
    3271                      .dwattr $C$DW$T$31, DW_AT_name("DRV8353_CTRL03_PeakSinkCurHS_e")
    3272                      .dwattr $C$DW$T$31, DW_AT_type(*$C$DW$T$30)
    3273                      .dwattr $C$DW$T$31, DW_AT_language(DW_LANG_C)
    3274              
    3275              
    3276              $C$DW$T$32      .dwtag  DW_TAG_enumeration_type
    3277                      .dwattr $C$DW$T$32, DW_AT_byte_size(0x01)
    3278              $C$DW$232       .dwtag  DW_TAG_enumerator
    3279                      .dwattr $C$DW$232, DW_AT_name("ISour_HS_0p050_A")
    3280                      .dwattr $C$DW$232, DW_AT_const_value(0x00)
    3281              
    3282              $C$DW$233       .dwtag  DW_TAG_enumerator
    3283                      .dwattr $C$DW$233, DW_AT_name("ISour_HS_0p05_A")
    3284                      .dwattr $C$DW$233, DW_AT_const_value(0x10)
    3285              
    3286              $C$DW$234       .dwtag  DW_TAG_enumerator
    3287                      .dwattr $C$DW$234, DW_AT_name("ISour_HS_0p100_A")
    3288                      .dwattr $C$DW$234, DW_AT_const_value(0x20)
    3289              
    3290              $C$DW$235       .dwtag  DW_TAG_enumerator
    3291                      .dwattr $C$DW$235, DW_AT_name("ISour_HS_0p150_A")
    3292                      .dwattr $C$DW$235, DW_AT_const_value(0x30)
    3293              
    3294              $C$DW$236       .dwtag  DW_TAG_enumerator
    3295                      .dwattr $C$DW$236, DW_AT_name("ISour_HS_0p300_A")
    3296                      .dwattr $C$DW$236, DW_AT_const_value(0x40)
    3297              
    3298              $C$DW$237       .dwtag  DW_TAG_enumerator
    3299                      .dwattr $C$DW$237, DW_AT_name("ISour_HS_0p350_A")
    3300                      .dwattr $C$DW$237, DW_AT_const_value(0x50)
    3301              
    3302              $C$DW$238       .dwtag  DW_TAG_enumerator
TMS320C2000 Assembler PC v15.12.3 Wed Jul 04 16:10:52 2018

Tools Copyright (c) 1996-2015 Texas Instruments Incorporated
C:\Users\a0393005\AppData\Local\Temp\1506410                         PAGE   64

    3303                      .dwattr $C$DW$238, DW_AT_name("ISour_HS_0p400_A")
    3304                      .dwattr $C$DW$238, DW_AT_const_value(0x60)
    3305              
    3306              $C$DW$239       .dwtag  DW_TAG_enumerator
    3307                      .dwattr $C$DW$239, DW_AT_name("ISour_HS_0p450_A")
    3308                      .dwattr $C$DW$239, DW_AT_const_value(0x70)
    3309              
    3310              $C$DW$240       .dwtag  DW_TAG_enumerator
    3311                      .dwattr $C$DW$240, DW_AT_name("ISour_HS_0p550_A")
    3312                      .dwattr $C$DW$240, DW_AT_const_value(0x80)
    3313              
    3314              $C$DW$241       .dwtag  DW_TAG_enumerator
    3315                      .dwattr $C$DW$241, DW_AT_name("ISour_HS_0p600_A")
    3316                      .dwattr $C$DW$241, DW_AT_const_value(0x90)
    3317              
    3318              $C$DW$242       .dwtag  DW_TAG_enumerator
    3319                      .dwattr $C$DW$242, DW_AT_name("ISour_HS_0p650_A")
    3320                      .dwattr $C$DW$242, DW_AT_const_value(0xa0)
    3321              
    3322              $C$DW$243       .dwtag  DW_TAG_enumerator
    3323                      .dwattr $C$DW$243, DW_AT_name("ISour_HS_1p700_A")
    3324                      .dwattr $C$DW$243, DW_AT_const_value(0xb0)
    3325              
    3326              $C$DW$244       .dwtag  DW_TAG_enumerator
    3327                      .dwattr $C$DW$244, DW_AT_name("ISour_HS_0p850_A")
    3328                      .dwattr $C$DW$244, DW_AT_const_value(0xc0)
    3329              
    3330              $C$DW$245       .dwtag  DW_TAG_enumerator
    3331                      .dwattr $C$DW$245, DW_AT_name("ISour_HS_0p900_A")
    3332                      .dwattr $C$DW$245, DW_AT_const_value(0xd0)
    3333              
    3334              $C$DW$246       .dwtag  DW_TAG_enumerator
    3335                      .dwattr $C$DW$246, DW_AT_name("ISour_HS_0p950_A")
    3336                      .dwattr $C$DW$246, DW_AT_const_value(0xe0)
    3337              
    3338              $C$DW$247       .dwtag  DW_TAG_enumerator
    3339                      .dwattr $C$DW$247, DW_AT_name("ISour_HS_1p000_A")
    3340                      .dwattr $C$DW$247, DW_AT_const_value(0xf0)
    3341              
    3342                      .dwendtag $C$DW$T$32
    3343              
    3344              $C$DW$T$33      .dwtag  DW_TAG_typedef
    3345                      .dwattr $C$DW$T$33, DW_AT_name("DRV8353_CTRL03_PeakSourCurHS_e")
    3346                      .dwattr $C$DW$T$33, DW_AT_type(*$C$DW$T$32)
    3347                      .dwattr $C$DW$T$33, DW_AT_language(DW_LANG_C)
    3348              
    3349              
    3350              $C$DW$T$34      .dwtag  DW_TAG_enumeration_type
    3351                      .dwattr $C$DW$T$34, DW_AT_byte_size(0x01)
    3352              $C$DW$248       .dwtag  DW_TAG_enumerator
    3353                      .dwattr $C$DW$248, DW_AT_name("Lock_lock")
    3354                      .dwattr $C$DW$248, DW_AT_const_value(0x600)
    3355              
    3356              $C$DW$249       .dwtag  DW_TAG_enumerator
    3357                      .dwattr $C$DW$249, DW_AT_name("Lock_unlock")
TMS320C2000 Assembler PC v15.12.3 Wed Jul 04 16:10:52 2018

Tools Copyright (c) 1996-2015 Texas Instruments Incorporated
C:\Users\a0393005\AppData\Local\Temp\1506410                         PAGE   65

    3358                      .dwattr $C$DW$249, DW_AT_const_value(0x300)
    3359              
    3360                      .dwendtag $C$DW$T$34
    3361              
    3362              $C$DW$T$35      .dwtag  DW_TAG_typedef
    3363                      .dwattr $C$DW$T$35, DW_AT_name("DRV8353_CTRL03_Lock_e")
    3364                      .dwattr $C$DW$T$35, DW_AT_type(*$C$DW$T$34)
    3365                      .dwattr $C$DW$T$35, DW_AT_language(DW_LANG_C)
    3366              
    3367              
    3368              $C$DW$T$37      .dwtag  DW_TAG_enumeration_type
    3369                      .dwattr $C$DW$T$37, DW_AT_byte_size(0x01)
    3370              $C$DW$250       .dwtag  DW_TAG_enumerator
    3371                      .dwattr $C$DW$250, DW_AT_name("ISink_LS_0p100_A")
    3372                      .dwattr $C$DW$250, DW_AT_const_value(0x00)
    3373              
    3374              $C$DW$251       .dwtag  DW_TAG_enumerator
    3375                      .dwattr $C$DW$251, DW_AT_name("ISink_LS_0p10_A")
    3376                      .dwattr $C$DW$251, DW_AT_const_value(0x01)
    3377              
    3378              $C$DW$252       .dwtag  DW_TAG_enumerator
    3379                      .dwattr $C$DW$252, DW_AT_name("ISink_LS_0p200_A")
    3380                      .dwattr $C$DW$252, DW_AT_const_value(0x02)
    3381              
    3382              $C$DW$253       .dwtag  DW_TAG_enumerator
    3383                      .dwattr $C$DW$253, DW_AT_name("ISink_LS_0p300_A")
    3384                      .dwattr $C$DW$253, DW_AT_const_value(0x03)
    3385              
    3386              $C$DW$254       .dwtag  DW_TAG_enumerator
    3387                      .dwattr $C$DW$254, DW_AT_name("ISink_LS_0p600_A")
    3388                      .dwattr $C$DW$254, DW_AT_const_value(0x04)
    3389              
    3390              $C$DW$255       .dwtag  DW_TAG_enumerator
    3391                      .dwattr $C$DW$255, DW_AT_name("ISink_LS_0p700_A")
    3392                      .dwattr $C$DW$255, DW_AT_const_value(0x05)
    3393              
    3394              $C$DW$256       .dwtag  DW_TAG_enumerator
    3395                      .dwattr $C$DW$256, DW_AT_name("ISink_LS_0p800_A")
    3396                      .dwattr $C$DW$256, DW_AT_const_value(0x06)
    3397              
    3398              $C$DW$257       .dwtag  DW_TAG_enumerator
    3399                      .dwattr $C$DW$257, DW_AT_name("ISink_LS_0p900_A")
    3400                      .dwattr $C$DW$257, DW_AT_const_value(0x07)
    3401              
    3402              $C$DW$258       .dwtag  DW_TAG_enumerator
    3403                      .dwattr $C$DW$258, DW_AT_name("ISink_LS_0p1100_A")
    3404                      .dwattr $C$DW$258, DW_AT_const_value(0x08)
    3405              
    3406              $C$DW$259       .dwtag  DW_TAG_enumerator
    3407                      .dwattr $C$DW$259, DW_AT_name("ISink_LS_0p1200_A")
    3408                      .dwattr $C$DW$259, DW_AT_const_value(0x09)
    3409              
    3410              $C$DW$260       .dwtag  DW_TAG_enumerator
    3411                      .dwattr $C$DW$260, DW_AT_name("ISink_LS_0p1300_A")
    3412                      .dwattr $C$DW$260, DW_AT_const_value(0x0a)
TMS320C2000 Assembler PC v15.12.3 Wed Jul 04 16:10:52 2018

Tools Copyright (c) 1996-2015 Texas Instruments Incorporated
C:\Users\a0393005\AppData\Local\Temp\1506410                         PAGE   66

    3413              
    3414              $C$DW$261       .dwtag  DW_TAG_enumerator
    3415                      .dwattr $C$DW$261, DW_AT_name("ISink_LS_0p1400_A")
    3416                      .dwattr $C$DW$261, DW_AT_const_value(0x0b)
    3417              
    3418              $C$DW$262       .dwtag  DW_TAG_enumerator
    3419                      .dwattr $C$DW$262, DW_AT_name("ISink_LS_0p1700_A")
    3420                      .dwattr $C$DW$262, DW_AT_const_value(0x0c)
    3421              
    3422              $C$DW$263       .dwtag  DW_TAG_enumerator
    3423                      .dwattr $C$DW$263, DW_AT_name("ISink_LS_0p1800_A")
    3424                      .dwattr $C$DW$263, DW_AT_const_value(0x0d)
    3425              
    3426              $C$DW$264       .dwtag  DW_TAG_enumerator
    3427                      .dwattr $C$DW$264, DW_AT_name("ISink_LS_0p1900_A")
    3428                      .dwattr $C$DW$264, DW_AT_const_value(0x0e)
    3429              
    3430              $C$DW$265       .dwtag  DW_TAG_enumerator
    3431                      .dwattr $C$DW$265, DW_AT_name("ISink_LS_0p2000_A")
    3432                      .dwattr $C$DW$265, DW_AT_const_value(0x0f)
    3433              
    3434                      .dwendtag $C$DW$T$37
    3435              
    3436              $C$DW$T$38      .dwtag  DW_TAG_typedef
    3437                      .dwattr $C$DW$T$38, DW_AT_name("DRV8353_CTRL04_PeakSinkCurLS_e")
    3438                      .dwattr $C$DW$T$38, DW_AT_type(*$C$DW$T$37)
    3439                      .dwattr $C$DW$T$38, DW_AT_language(DW_LANG_C)
    3440              
    3441              
    3442              $C$DW$T$39      .dwtag  DW_TAG_enumeration_type
    3443                      .dwattr $C$DW$T$39, DW_AT_byte_size(0x01)
    3444              $C$DW$266       .dwtag  DW_TAG_enumerator
    3445                      .dwattr $C$DW$266, DW_AT_name("ISour_LS_0p050_A")
    3446                      .dwattr $C$DW$266, DW_AT_const_value(0x00)
    3447              
    3448              $C$DW$267       .dwtag  DW_TAG_enumerator
    3449                      .dwattr $C$DW$267, DW_AT_name("ISour_LS_0p05_A")
    3450                      .dwattr $C$DW$267, DW_AT_const_value(0x10)
    3451              
    3452              $C$DW$268       .dwtag  DW_TAG_enumerator
    3453                      .dwattr $C$DW$268, DW_AT_name("ISour_LS_0p100_A")
    3454                      .dwattr $C$DW$268, DW_AT_const_value(0x20)
    3455              
    3456              $C$DW$269       .dwtag  DW_TAG_enumerator
    3457                      .dwattr $C$DW$269, DW_AT_name("ISour_LS_0p150_A")
    3458                      .dwattr $C$DW$269, DW_AT_const_value(0x30)
    3459              
    3460              $C$DW$270       .dwtag  DW_TAG_enumerator
    3461                      .dwattr $C$DW$270, DW_AT_name("ISour_LS_0p300_A")
    3462                      .dwattr $C$DW$270, DW_AT_const_value(0x40)
    3463              
    3464              $C$DW$271       .dwtag  DW_TAG_enumerator
    3465                      .dwattr $C$DW$271, DW_AT_name("ISour_LS_0p350_A")
    3466                      .dwattr $C$DW$271, DW_AT_const_value(0x50)
    3467              
TMS320C2000 Assembler PC v15.12.3 Wed Jul 04 16:10:52 2018

Tools Copyright (c) 1996-2015 Texas Instruments Incorporated
C:\Users\a0393005\AppData\Local\Temp\1506410                         PAGE   67

    3468              $C$DW$272       .dwtag  DW_TAG_enumerator
    3469                      .dwattr $C$DW$272, DW_AT_name("ISour_LS_0p400_A")
    3470                      .dwattr $C$DW$272, DW_AT_const_value(0x60)
    3471              
    3472              $C$DW$273       .dwtag  DW_TAG_enumerator
    3473                      .dwattr $C$DW$273, DW_AT_name("ISour_LS_0p450_A")
    3474                      .dwattr $C$DW$273, DW_AT_const_value(0x70)
    3475              
    3476              $C$DW$274       .dwtag  DW_TAG_enumerator
    3477                      .dwattr $C$DW$274, DW_AT_name("ISour_LS_0p550_A")
    3478                      .dwattr $C$DW$274, DW_AT_const_value(0x80)
    3479              
    3480              $C$DW$275       .dwtag  DW_TAG_enumerator
    3481                      .dwattr $C$DW$275, DW_AT_name("ISour_LS_0p600_A")
    3482                      .dwattr $C$DW$275, DW_AT_const_value(0x90)
    3483              
    3484              $C$DW$276       .dwtag  DW_TAG_enumerator
    3485                      .dwattr $C$DW$276, DW_AT_name("ISour_LS_0p650_A")
    3486                      .dwattr $C$DW$276, DW_AT_const_value(0xa0)
    3487              
    3488              $C$DW$277       .dwtag  DW_TAG_enumerator
    3489                      .dwattr $C$DW$277, DW_AT_name("ISour_LS_1p700_A")
    3490                      .dwattr $C$DW$277, DW_AT_const_value(0xb0)
    3491              
    3492              $C$DW$278       .dwtag  DW_TAG_enumerator
    3493                      .dwattr $C$DW$278, DW_AT_name("ISour_LS_0p850_A")
    3494                      .dwattr $C$DW$278, DW_AT_const_value(0xc0)
    3495              
    3496              $C$DW$279       .dwtag  DW_TAG_enumerator
    3497                      .dwattr $C$DW$279, DW_AT_name("ISour_LS_0p900_A")
    3498                      .dwattr $C$DW$279, DW_AT_const_value(0xd0)
    3499              
    3500              $C$DW$280       .dwtag  DW_TAG_enumerator
    3501                      .dwattr $C$DW$280, DW_AT_name("ISour_LS_0p950_A")
    3502                      .dwattr $C$DW$280, DW_AT_const_value(0xe0)
    3503              
    3504              $C$DW$281       .dwtag  DW_TAG_enumerator
    3505                      .dwattr $C$DW$281, DW_AT_name("ISour_LS_1p000_A")
    3506                      .dwattr $C$DW$281, DW_AT_const_value(0xf0)
    3507              
    3508                      .dwendtag $C$DW$T$39
    3509              
    3510              $C$DW$T$40      .dwtag  DW_TAG_typedef
    3511                      .dwattr $C$DW$T$40, DW_AT_name("DRV8353_CTRL04_PeakSourCurLS_e")
    3512                      .dwattr $C$DW$T$40, DW_AT_type(*$C$DW$T$39)
    3513                      .dwattr $C$DW$T$40, DW_AT_language(DW_LANG_C)
    3514              
    3515              
    3516              $C$DW$T$41      .dwtag  DW_TAG_enumeration_type
    3517                      .dwattr $C$DW$T$41, DW_AT_byte_size(0x01)
    3518              $C$DW$282       .dwtag  DW_TAG_enumerator
    3519                      .dwattr $C$DW$282, DW_AT_name("TSour_500_ns")
    3520                      .dwattr $C$DW$282, DW_AT_const_value(0x00)
    3521              
    3522              $C$DW$283       .dwtag  DW_TAG_enumerator
TMS320C2000 Assembler PC v15.12.3 Wed Jul 04 16:10:52 2018

Tools Copyright (c) 1996-2015 Texas Instruments Incorporated
C:\Users\a0393005\AppData\Local\Temp\1506410                         PAGE   68

    3523                      .dwattr $C$DW$283, DW_AT_name("TSour_1000_ns")
    3524                      .dwattr $C$DW$283, DW_AT_const_value(0x100)
    3525              
    3526              $C$DW$284       .dwtag  DW_TAG_enumerator
    3527                      .dwattr $C$DW$284, DW_AT_name("TSour_2000_ns")
    3528                      .dwattr $C$DW$284, DW_AT_const_value(0x200)
    3529              
    3530              $C$DW$285       .dwtag  DW_TAG_enumerator
    3531                      .dwattr $C$DW$285, DW_AT_name("TSour_4000_ns")
    3532                      .dwattr $C$DW$285, DW_AT_const_value(0x300)
    3533              
    3534                      .dwendtag $C$DW$T$41
    3535              
    3536              $C$DW$T$42      .dwtag  DW_TAG_typedef
    3537                      .dwattr $C$DW$T$42, DW_AT_name("DRV8353_CTRL04_PeakTime_e")
    3538                      .dwattr $C$DW$T$42, DW_AT_type(*$C$DW$T$41)
    3539                      .dwattr $C$DW$T$42, DW_AT_language(DW_LANG_C)
    3540              
    3541              
    3542              $C$DW$T$44      .dwtag  DW_TAG_enumeration_type
    3543                      .dwattr $C$DW$T$44, DW_AT_byte_size(0x01)
    3544              $C$DW$286       .dwtag  DW_TAG_enumerator
    3545                      .dwattr $C$DW$286, DW_AT_name("VDS_Level_0p060_V")
    3546                      .dwattr $C$DW$286, DW_AT_const_value(0x00)
    3547              
    3548              $C$DW$287       .dwtag  DW_TAG_enumerator
    3549                      .dwattr $C$DW$287, DW_AT_name("VDS_Level_0p070_V")
    3550                      .dwattr $C$DW$287, DW_AT_const_value(0x01)
    3551              
    3552              $C$DW$288       .dwtag  DW_TAG_enumerator
    3553                      .dwattr $C$DW$288, DW_AT_name("VDS_Level_0p080_V")
    3554                      .dwattr $C$DW$288, DW_AT_const_value(0x02)
    3555              
    3556              $C$DW$289       .dwtag  DW_TAG_enumerator
    3557                      .dwattr $C$DW$289, DW_AT_name("VDS_Level_0p090_V")
    3558                      .dwattr $C$DW$289, DW_AT_const_value(0x03)
    3559              
    3560              $C$DW$290       .dwtag  DW_TAG_enumerator
    3561                      .dwattr $C$DW$290, DW_AT_name("VDS_Level_0p100_V")
    3562                      .dwattr $C$DW$290, DW_AT_const_value(0x04)
    3563              
    3564              $C$DW$291       .dwtag  DW_TAG_enumerator
    3565                      .dwattr $C$DW$291, DW_AT_name("VDS_Level_0p200_V")
    3566                      .dwattr $C$DW$291, DW_AT_const_value(0x05)
    3567              
    3568              $C$DW$292       .dwtag  DW_TAG_enumerator
    3569                      .dwattr $C$DW$292, DW_AT_name("VDS_Level_0p300_V")
    3570                      .dwattr $C$DW$292, DW_AT_const_value(0x06)
    3571              
    3572              $C$DW$293       .dwtag  DW_TAG_enumerator
    3573                      .dwattr $C$DW$293, DW_AT_name("VDS_Level_0p400_V")
    3574                      .dwattr $C$DW$293, DW_AT_const_value(0x07)
    3575              
    3576              $C$DW$294       .dwtag  DW_TAG_enumerator
    3577                      .dwattr $C$DW$294, DW_AT_name("VDS_Level_0p500_V")
TMS320C2000 Assembler PC v15.12.3 Wed Jul 04 16:10:52 2018

Tools Copyright (c) 1996-2015 Texas Instruments Incorporated
C:\Users\a0393005\AppData\Local\Temp\1506410                         PAGE   69

    3578                      .dwattr $C$DW$294, DW_AT_const_value(0x08)
    3579              
    3580              $C$DW$295       .dwtag  DW_TAG_enumerator
    3581                      .dwattr $C$DW$295, DW_AT_name("VDS_Level_0p600_V")
    3582                      .dwattr $C$DW$295, DW_AT_const_value(0x09)
    3583              
    3584              $C$DW$296       .dwtag  DW_TAG_enumerator
    3585                      .dwattr $C$DW$296, DW_AT_name("VDS_Level_0p700_V")
    3586                      .dwattr $C$DW$296, DW_AT_const_value(0x0a)
    3587              
    3588              $C$DW$297       .dwtag  DW_TAG_enumerator
    3589                      .dwattr $C$DW$297, DW_AT_name("VDS_Level_0p800_V")
    3590                      .dwattr $C$DW$297, DW_AT_const_value(0x0b)
    3591              
    3592              $C$DW$298       .dwtag  DW_TAG_enumerator
    3593                      .dwattr $C$DW$298, DW_AT_name("VDS_Level_0p900_V")
    3594                      .dwattr $C$DW$298, DW_AT_const_value(0x0c)
    3595              
    3596              $C$DW$299       .dwtag  DW_TAG_enumerator
    3597                      .dwattr $C$DW$299, DW_AT_name("VDS_Level_1p000_V")
    3598                      .dwattr $C$DW$299, DW_AT_const_value(0x0d)
    3599              
    3600              $C$DW$300       .dwtag  DW_TAG_enumerator
    3601                      .dwattr $C$DW$300, DW_AT_name("VDS_Level_1p500_V")
    3602                      .dwattr $C$DW$300, DW_AT_const_value(0x0e)
    3603              
    3604              $C$DW$301       .dwtag  DW_TAG_enumerator
    3605                      .dwattr $C$DW$301, DW_AT_name("VDS_Level_2p000_V")
    3606                      .dwattr $C$DW$301, DW_AT_const_value(0x0f)
    3607              
    3608                      .dwendtag $C$DW$T$44
    3609              
    3610              $C$DW$T$45      .dwtag  DW_TAG_typedef
    3611                      .dwattr $C$DW$T$45, DW_AT_name("DRV8353_CTRL05_VDSLVL_e")
    3612                      .dwattr $C$DW$T$45, DW_AT_type(*$C$DW$T$44)
    3613                      .dwattr $C$DW$T$45, DW_AT_language(DW_LANG_C)
    3614              
    3615              
    3616              $C$DW$T$46      .dwtag  DW_TAG_enumeration_type
    3617                      .dwattr $C$DW$T$46, DW_AT_byte_size(0x01)
    3618              $C$DW$302       .dwtag  DW_TAG_enumerator
    3619                      .dwattr $C$DW$302, DW_AT_name("VDSDeg_0_us")
    3620                      .dwattr $C$DW$302, DW_AT_const_value(0x00)
    3621              
    3622              $C$DW$303       .dwtag  DW_TAG_enumerator
    3623                      .dwattr $C$DW$303, DW_AT_name("VDSDeg_2_us")
    3624                      .dwattr $C$DW$303, DW_AT_const_value(0x10)
    3625              
    3626              $C$DW$304       .dwtag  DW_TAG_enumerator
    3627                      .dwattr $C$DW$304, DW_AT_name("VDSDeg_4_us")
    3628                      .dwattr $C$DW$304, DW_AT_const_value(0x20)
    3629              
    3630              $C$DW$305       .dwtag  DW_TAG_enumerator
    3631                      .dwattr $C$DW$305, DW_AT_name("VDSDeg_8_us")
    3632                      .dwattr $C$DW$305, DW_AT_const_value(0x30)
TMS320C2000 Assembler PC v15.12.3 Wed Jul 04 16:10:52 2018

Tools Copyright (c) 1996-2015 Texas Instruments Incorporated
C:\Users\a0393005\AppData\Local\Temp\1506410                         PAGE   70

    3633              
    3634                      .dwendtag $C$DW$T$46
    3635              
    3636              $C$DW$T$47      .dwtag  DW_TAG_typedef
    3637                      .dwattr $C$DW$T$47, DW_AT_name("DRV8353_CTRL05_OcpDeg_e")
    3638                      .dwattr $C$DW$T$47, DW_AT_type(*$C$DW$T$46)
    3639                      .dwattr $C$DW$T$47, DW_AT_language(DW_LANG_C)
    3640              
    3641              
    3642              $C$DW$T$48      .dwtag  DW_TAG_enumeration_type
    3643                      .dwattr $C$DW$T$48, DW_AT_byte_size(0x01)
    3644              $C$DW$306       .dwtag  DW_TAG_enumerator
    3645                      .dwattr $C$DW$306, DW_AT_name("Latched_Shutdown")
    3646                      .dwattr $C$DW$306, DW_AT_const_value(0x00)
    3647              
    3648              $C$DW$307       .dwtag  DW_TAG_enumerator
    3649                      .dwattr $C$DW$307, DW_AT_name("Automatic_Retry")
    3650                      .dwattr $C$DW$307, DW_AT_const_value(0x40)
    3651              
    3652              $C$DW$308       .dwtag  DW_TAG_enumerator
    3653                      .dwattr $C$DW$308, DW_AT_name("Report_Only")
    3654                      .dwattr $C$DW$308, DW_AT_const_value(0x80)
    3655              
    3656              $C$DW$309       .dwtag  DW_TAG_enumerator
    3657                      .dwattr $C$DW$309, DW_AT_name("Disable_OCP")
    3658                      .dwattr $C$DW$309, DW_AT_const_value(0xc0)
    3659              
    3660                      .dwendtag $C$DW$T$48
    3661              
    3662              $C$DW$T$49      .dwtag  DW_TAG_typedef
    3663                      .dwattr $C$DW$T$49, DW_AT_name("DRV8353_CTRL05_OcpMode_e")
    3664                      .dwattr $C$DW$T$49, DW_AT_type(*$C$DW$T$48)
    3665                      .dwattr $C$DW$T$49, DW_AT_language(DW_LANG_C)
    3666              
    3667              
    3668              $C$DW$T$50      .dwtag  DW_TAG_enumeration_type
    3669                      .dwattr $C$DW$T$50, DW_AT_byte_size(0x01)
    3670              $C$DW$310       .dwtag  DW_TAG_enumerator
    3671                      .dwattr $C$DW$310, DW_AT_name("DeadTime_50_ns")
    3672                      .dwattr $C$DW$310, DW_AT_const_value(0x00)
    3673              
    3674              $C$DW$311       .dwtag  DW_TAG_enumerator
    3675                      .dwattr $C$DW$311, DW_AT_name("DeadTime_100_ns")
    3676                      .dwattr $C$DW$311, DW_AT_const_value(0x100)
    3677              
    3678              $C$DW$312       .dwtag  DW_TAG_enumerator
    3679                      .dwattr $C$DW$312, DW_AT_name("DeadTime_200_ns")
    3680                      .dwattr $C$DW$312, DW_AT_const_value(0x200)
    3681              
    3682              $C$DW$313       .dwtag  DW_TAG_enumerator
    3683                      .dwattr $C$DW$313, DW_AT_name("DeadTime_400_ns")
    3684                      .dwattr $C$DW$313, DW_AT_const_value(0x300)
    3685              
    3686                      .dwendtag $C$DW$T$50
    3687              
TMS320C2000 Assembler PC v15.12.3 Wed Jul 04 16:10:52 2018

Tools Copyright (c) 1996-2015 Texas Instruments Incorporated
C:\Users\a0393005\AppData\Local\Temp\1506410                         PAGE   71

    3688              $C$DW$T$51      .dwtag  DW_TAG_typedef
    3689                      .dwattr $C$DW$T$51, DW_AT_name("DRV8353_CTRL05_DeadTime_e")
    3690                      .dwattr $C$DW$T$51, DW_AT_type(*$C$DW$T$50)
    3691                      .dwattr $C$DW$T$51, DW_AT_language(DW_LANG_C)
    3692              
    3693              
    3694              $C$DW$T$53      .dwtag  DW_TAG_enumeration_type
    3695                      .dwattr $C$DW$T$53, DW_AT_byte_size(0x01)
    3696              $C$DW$314       .dwtag  DW_TAG_enumerator
    3697                      .dwattr $C$DW$314, DW_AT_name("SEN_Lvl_Ocp_0p25")
    3698                      .dwattr $C$DW$314, DW_AT_const_value(0x00)
    3699              
    3700              $C$DW$315       .dwtag  DW_TAG_enumerator
    3701                      .dwattr $C$DW$315, DW_AT_name("SEN_Lvl_Ocp_0p50")
    3702                      .dwattr $C$DW$315, DW_AT_const_value(0x01)
    3703              
    3704              $C$DW$316       .dwtag  DW_TAG_enumerator
    3705                      .dwattr $C$DW$316, DW_AT_name("SEN_Lvl_Ocp_0p75")
    3706                      .dwattr $C$DW$316, DW_AT_const_value(0x02)
    3707              
    3708              $C$DW$317       .dwtag  DW_TAG_enumerator
    3709                      .dwattr $C$DW$317, DW_AT_name("SEN_Lvl_Ocp_1p00")
    3710                      .dwattr $C$DW$317, DW_AT_const_value(0x03)
    3711              
    3712                      .dwendtag $C$DW$T$53
    3713              
    3714              $C$DW$T$54      .dwtag  DW_TAG_typedef
    3715                      .dwattr $C$DW$T$54, DW_AT_name("DRV8353_CTRL06_SENLevel_e")
    3716                      .dwattr $C$DW$T$54, DW_AT_type(*$C$DW$T$53)
    3717                      .dwattr $C$DW$T$54, DW_AT_language(DW_LANG_C)
    3718              
    3719              
    3720              $C$DW$T$55      .dwtag  DW_TAG_enumeration_type
    3721                      .dwattr $C$DW$T$55, DW_AT_byte_size(0x01)
    3722              $C$DW$318       .dwtag  DW_TAG_enumerator
    3723                      .dwattr $C$DW$318, DW_AT_name("Gain_5VpV")
    3724                      .dwattr $C$DW$318, DW_AT_const_value(0x00)
    3725              
    3726              $C$DW$319       .dwtag  DW_TAG_enumerator
    3727                      .dwattr $C$DW$319, DW_AT_name("Gain_10VpV")
    3728                      .dwattr $C$DW$319, DW_AT_const_value(0x40)
    3729              
    3730              $C$DW$320       .dwtag  DW_TAG_enumerator
    3731                      .dwattr $C$DW$320, DW_AT_name("Gain_20VpV")
    3732                      .dwattr $C$DW$320, DW_AT_const_value(0x80)
    3733              
    3734              $C$DW$321       .dwtag  DW_TAG_enumerator
    3735                      .dwattr $C$DW$321, DW_AT_name("Gain_40VpV")
    3736                      .dwattr $C$DW$321, DW_AT_const_value(0xc0)
    3737              
    3738                      .dwendtag $C$DW$T$55
    3739              
    3740              $C$DW$T$56      .dwtag  DW_TAG_typedef
    3741                      .dwattr $C$DW$T$56, DW_AT_name("DRV8353_CTRL06_CSAGain_e")
    3742                      .dwattr $C$DW$T$56, DW_AT_type(*$C$DW$T$55)
TMS320C2000 Assembler PC v15.12.3 Wed Jul 04 16:10:52 2018

Tools Copyright (c) 1996-2015 Texas Instruments Incorporated
C:\Users\a0393005\AppData\Local\Temp\1506410                         PAGE   72

    3743                      .dwattr $C$DW$T$56, DW_AT_language(DW_LANG_C)
    3744              
    3745              
    3746              $C$DW$T$102     .dwtag  DW_TAG_enumeration_type
    3747                      .dwattr $C$DW$T$102, DW_AT_byte_size(0x01)
    3748              $C$DW$322       .dwtag  DW_TAG_enumerator
    3749                      .dwattr $C$DW$322, DW_AT_name("SPI_FifoStatus_Empty")
    3750                      .dwattr $C$DW$322, DW_AT_const_value(0x00)
    3751              
    3752              $C$DW$323       .dwtag  DW_TAG_enumerator
    3753                      .dwattr $C$DW$323, DW_AT_name("SPI_FifoStatus_1_Word")
    3754                      .dwattr $C$DW$323, DW_AT_const_value(0x100)
    3755              
    3756              $C$DW$324       .dwtag  DW_TAG_enumerator
    3757                      .dwattr $C$DW$324, DW_AT_name("SPI_FifoStatus_2_Words")
    3758                      .dwattr $C$DW$324, DW_AT_const_value(0x200)
    3759              
    3760              $C$DW$325       .dwtag  DW_TAG_enumerator
    3761                      .dwattr $C$DW$325, DW_AT_name("SPI_FifoStatus_3_Words")
    3762                      .dwattr $C$DW$325, DW_AT_const_value(0x300)
    3763              
    3764              $C$DW$326       .dwtag  DW_TAG_enumerator
    3765                      .dwattr $C$DW$326, DW_AT_name("SPI_FifoStatus_4_Words")
    3766                      .dwattr $C$DW$326, DW_AT_const_value(0x400)
    3767              
    3768                      .dwendtag $C$DW$T$102
    3769              
    3770              $C$DW$T$103     .dwtag  DW_TAG_typedef
    3771                      .dwattr $C$DW$T$103, DW_AT_name("SPI_FifoStatus_e")
    3772                      .dwattr $C$DW$T$103, DW_AT_type(*$C$DW$T$102)
    3773                      .dwattr $C$DW$T$103, DW_AT_language(DW_LANG_C)
    3774              
    3775              $C$DW$327       .dwtag  DW_TAG_TI_far_type
    3776                      .dwattr $C$DW$327, DW_AT_type(*$C$DW$T$103)
    3777              
    3778              $C$DW$T$104     .dwtag  DW_TAG_volatile_type
    3779                      .dwattr $C$DW$T$104, DW_AT_type(*$C$DW$327)
    3780              
    3781              
    3782              $C$DW$T$108     .dwtag  DW_TAG_enumeration_type
    3783                      .dwattr $C$DW$T$108, DW_AT_byte_size(0x01)
    3784              $C$DW$328       .dwtag  DW_TAG_enumerator
    3785                      .dwattr $C$DW$328, DW_AT_name("CtrlMode_Read")
    3786                      .dwattr $C$DW$328, DW_AT_const_value(-32768)
    3787              
    3788              $C$DW$329       .dwtag  DW_TAG_enumerator
    3789                      .dwattr $C$DW$329, DW_AT_name("CtrlMode_Write")
    3790                      .dwattr $C$DW$329, DW_AT_const_value(0x00)
    3791              
    3792                      .dwendtag $C$DW$T$108
    3793              
    3794              $C$DW$T$109     .dwtag  DW_TAG_typedef
    3795                      .dwattr $C$DW$T$109, DW_AT_name("DRV8353_CtrlMode_e")
    3796                      .dwattr $C$DW$T$109, DW_AT_type(*$C$DW$T$108)
    3797                      .dwattr $C$DW$T$109, DW_AT_language(DW_LANG_C)
TMS320C2000 Assembler PC v15.12.3 Wed Jul 04 16:10:52 2018

Tools Copyright (c) 1996-2015 Texas Instruments Incorporated
C:\Users\a0393005\AppData\Local\Temp\1506410                         PAGE   73

    3798              
    3799              
    3800              $C$DW$T$111     .dwtag  DW_TAG_enumeration_type
    3801                      .dwattr $C$DW$T$111, DW_AT_byte_size(0x01)
    3802              $C$DW$330       .dwtag  DW_TAG_enumerator
    3803                      .dwattr $C$DW$330, DW_AT_name("Address_Status_0")
    3804                      .dwattr $C$DW$330, DW_AT_const_value(0x00)
    3805              
    3806              $C$DW$331       .dwtag  DW_TAG_enumerator
    3807                      .dwattr $C$DW$331, DW_AT_name("Address_Status_1")
    3808                      .dwattr $C$DW$331, DW_AT_const_value(0x800)
    3809              
    3810              $C$DW$332       .dwtag  DW_TAG_enumerator
    3811                      .dwattr $C$DW$332, DW_AT_name("Address_Control_2")
    3812                      .dwattr $C$DW$332, DW_AT_const_value(0x1000)
    3813              
    3814              $C$DW$333       .dwtag  DW_TAG_enumerator
    3815                      .dwattr $C$DW$333, DW_AT_name("Address_Control_3")
    3816                      .dwattr $C$DW$333, DW_AT_const_value(0x1800)
    3817              
    3818              $C$DW$334       .dwtag  DW_TAG_enumerator
    3819                      .dwattr $C$DW$334, DW_AT_name("Address_Control_4")
    3820                      .dwattr $C$DW$334, DW_AT_const_value(0x2000)
    3821              
    3822              $C$DW$335       .dwtag  DW_TAG_enumerator
    3823                      .dwattr $C$DW$335, DW_AT_name("Address_Control_5")
    3824                      .dwattr $C$DW$335, DW_AT_const_value(0x2800)
    3825              
    3826              $C$DW$336       .dwtag  DW_TAG_enumerator
    3827                      .dwattr $C$DW$336, DW_AT_name("Address_Control_6")
    3828                      .dwattr $C$DW$336, DW_AT_const_value(0x3000)
    3829              
    3830              $C$DW$337       .dwtag  DW_TAG_enumerator
    3831                      .dwattr $C$DW$337, DW_AT_name("Address_Control_7")
    3832                      .dwattr $C$DW$337, DW_AT_const_value(0x3800)
    3833              
    3834                      .dwendtag $C$DW$T$111
    3835              
    3836              $C$DW$T$112     .dwtag  DW_TAG_typedef
    3837                      .dwattr $C$DW$T$112, DW_AT_name("DRV8353_Address_e")
    3838                      .dwattr $C$DW$T$112, DW_AT_type(*$C$DW$T$111)
    3839                      .dwattr $C$DW$T$112, DW_AT_language(DW_LANG_C)
    3840              
    3841              $C$DW$338       .dwtag  DW_TAG_TI_far_type
    3842                      .dwattr $C$DW$338, DW_AT_type(*$C$DW$T$112)
    3843              
    3844              $C$DW$T$113     .dwtag  DW_TAG_const_type
    3845                      .dwattr $C$DW$T$113, DW_AT_type(*$C$DW$338)
    3846              
    3847              
    3848              $C$DW$T$26      .dwtag  DW_TAG_structure_type
    3849                      .dwattr $C$DW$T$26, DW_AT_name("_DRV8353_Obj_")
    3850                      .dwattr $C$DW$T$26, DW_AT_byte_size(0x08)
    3851              $C$DW$339       .dwtag  DW_TAG_member
    3852                      .dwattr $C$DW$339, DW_AT_type(*$C$DW$T$20)
TMS320C2000 Assembler PC v15.12.3 Wed Jul 04 16:10:52 2018

Tools Copyright (c) 1996-2015 Texas Instruments Incorporated
C:\Users\a0393005\AppData\Local\Temp\1506410                         PAGE   74

    3853                      .dwattr $C$DW$339, DW_AT_name("spiHandle")
    3854                      .dwattr $C$DW$339, DW_AT_TI_symbol_name("_spiHandle")
    3855                      .dwattr $C$DW$339, DW_AT_data_member_location[DW_OP_plus_uconst 0x0]
    3856                      .dwattr $C$DW$339, DW_AT_accessibility(DW_ACCESS_public)
    3857              
    3858              $C$DW$340       .dwtag  DW_TAG_member
    3859                      .dwattr $C$DW$340, DW_AT_type(*$C$DW$T$22)
    3860                      .dwattr $C$DW$340, DW_AT_name("gpioHandle")
    3861                      .dwattr $C$DW$340, DW_AT_TI_symbol_name("_gpioHandle")
    3862                      .dwattr $C$DW$340, DW_AT_data_member_location[DW_OP_plus_uconst 0x2]
    3863                      .dwattr $C$DW$340, DW_AT_accessibility(DW_ACCESS_public)
    3864              
    3865              $C$DW$341       .dwtag  DW_TAG_member
    3866                      .dwattr $C$DW$341, DW_AT_type(*$C$DW$T$24)
    3867                      .dwattr $C$DW$341, DW_AT_name("gpioNumber")
    3868                      .dwattr $C$DW$341, DW_AT_TI_symbol_name("_gpioNumber")
    3869                      .dwattr $C$DW$341, DW_AT_data_member_location[DW_OP_plus_uconst 0x4]
    3870                      .dwattr $C$DW$341, DW_AT_accessibility(DW_ACCESS_public)
    3871              
    3872              $C$DW$342       .dwtag  DW_TAG_member
    3873                      .dwattr $C$DW$342, DW_AT_type(*$C$DW$T$25)
    3874                      .dwattr $C$DW$342, DW_AT_name("RxTimeOut")
    3875                      .dwattr $C$DW$342, DW_AT_TI_symbol_name("_RxTimeOut")
    3876                      .dwattr $C$DW$342, DW_AT_data_member_location[DW_OP_plus_uconst 0x5]
    3877                      .dwattr $C$DW$342, DW_AT_accessibility(DW_ACCESS_public)
    3878              
    3879              $C$DW$343       .dwtag  DW_TAG_member
    3880                      .dwattr $C$DW$343, DW_AT_type(*$C$DW$T$25)
    3881                      .dwattr $C$DW$343, DW_AT_name("enableTimeOut")
    3882                      .dwattr $C$DW$343, DW_AT_TI_symbol_name("_enableTimeOut")
    3883                      .dwattr $C$DW$343, DW_AT_data_member_location[DW_OP_plus_uconst 0x6]
    3884                      .dwattr $C$DW$343, DW_AT_accessibility(DW_ACCESS_public)
    3885              
    3886                      .dwendtag $C$DW$T$26
    3887              
    3888              $C$DW$T$114     .dwtag  DW_TAG_typedef
    3889                      .dwattr $C$DW$T$114, DW_AT_name("DRV8353_Obj")
    3890                      .dwattr $C$DW$T$114, DW_AT_type(*$C$DW$T$26)
    3891                      .dwattr $C$DW$T$114, DW_AT_language(DW_LANG_C)
    3892              
    3893              $C$DW$T$84      .dwtag  DW_TAG_pointer_type
    3894                      .dwattr $C$DW$T$84, DW_AT_type(*$C$DW$T$26)
    3895                      .dwattr $C$DW$T$84, DW_AT_address_class(0x20)
    3896              
    3897              $C$DW$T$85      .dwtag  DW_TAG_typedef
    3898                      .dwattr $C$DW$T$85, DW_AT_name("DRV8353_Handle")
    3899                      .dwattr $C$DW$T$85, DW_AT_type(*$C$DW$T$84)
    3900                      .dwattr $C$DW$T$85, DW_AT_language(DW_LANG_C)
    3901              
    3902              $C$DW$344       .dwtag  DW_TAG_TI_far_type
    3903                      .dwattr $C$DW$344, DW_AT_type(*$C$DW$T$85)
    3904              
    3905              $C$DW$T$115     .dwtag  DW_TAG_const_type
    3906                      .dwattr $C$DW$T$115, DW_AT_type(*$C$DW$344)
    3907              
TMS320C2000 Assembler PC v15.12.3 Wed Jul 04 16:10:52 2018

Tools Copyright (c) 1996-2015 Texas Instruments Incorporated
C:\Users\a0393005\AppData\Local\Temp\1506410                         PAGE   75

    3908              
    3909              $C$DW$T$29      .dwtag  DW_TAG_structure_type
    3910                      .dwattr $C$DW$T$29, DW_AT_name("_DRV_SPI_8353_Ctrl02_t_")
    3911                      .dwattr $C$DW$T$29, DW_AT_byte_size(0x0a)
    3912              $C$DW$345       .dwtag  DW_TAG_member
    3913                      .dwattr $C$DW$345, DW_AT_type(*$C$DW$T$25)
    3914                      .dwattr $C$DW$345, DW_AT_name("CLR_FLT")
    3915                      .dwattr $C$DW$345, DW_AT_TI_symbol_name("_CLR_FLT")
    3916                      .dwattr $C$DW$345, DW_AT_data_member_location[DW_OP_plus_uconst 0x0]
    3917                      .dwattr $C$DW$345, DW_AT_accessibility(DW_ACCESS_public)
    3918              
    3919              $C$DW$346       .dwtag  DW_TAG_member
    3920                      .dwattr $C$DW$346, DW_AT_type(*$C$DW$T$25)
    3921                      .dwattr $C$DW$346, DW_AT_name("BRAKE")
    3922                      .dwattr $C$DW$346, DW_AT_TI_symbol_name("_BRAKE")
    3923                      .dwattr $C$DW$346, DW_AT_data_member_location[DW_OP_plus_uconst 0x1]
    3924                      .dwattr $C$DW$346, DW_AT_accessibility(DW_ACCESS_public)
    3925              
    3926              $C$DW$347       .dwtag  DW_TAG_member
    3927                      .dwattr $C$DW$347, DW_AT_type(*$C$DW$T$25)
    3928                      .dwattr $C$DW$347, DW_AT_name("COAST")
    3929                      .dwattr $C$DW$347, DW_AT_TI_symbol_name("_COAST")
    3930                      .dwattr $C$DW$347, DW_AT_data_member_location[DW_OP_plus_uconst 0x2]
    3931                      .dwattr $C$DW$347, DW_AT_accessibility(DW_ACCESS_public)
    3932              
    3933              $C$DW$348       .dwtag  DW_TAG_member
    3934                      .dwattr $C$DW$348, DW_AT_type(*$C$DW$T$25)
    3935                      .dwattr $C$DW$348, DW_AT_name("PWM1_DIR")
    3936                      .dwattr $C$DW$348, DW_AT_TI_symbol_name("_PWM1_DIR")
    3937                      .dwattr $C$DW$348, DW_AT_data_member_location[DW_OP_plus_uconst 0x3]
    3938                      .dwattr $C$DW$348, DW_AT_accessibility(DW_ACCESS_public)
    3939              
    3940              $C$DW$349       .dwtag  DW_TAG_member
    3941                      .dwattr $C$DW$349, DW_AT_type(*$C$DW$T$25)
    3942                      .dwattr $C$DW$349, DW_AT_name("PWM1_COM")
    3943                      .dwattr $C$DW$349, DW_AT_TI_symbol_name("_PWM1_COM")
    3944                      .dwattr $C$DW$349, DW_AT_data_member_location[DW_OP_plus_uconst 0x4]
    3945                      .dwattr $C$DW$349, DW_AT_accessibility(DW_ACCESS_public)
    3946              
    3947              $C$DW$350       .dwtag  DW_TAG_member
    3948                      .dwattr $C$DW$350, DW_AT_type(*$C$DW$T$28)
    3949                      .dwattr $C$DW$350, DW_AT_name("PWM_MODE")
    3950                      .dwattr $C$DW$350, DW_AT_TI_symbol_name("_PWM_MODE")
    3951                      .dwattr $C$DW$350, DW_AT_data_member_location[DW_OP_plus_uconst 0x5]
    3952                      .dwattr $C$DW$350, DW_AT_accessibility(DW_ACCESS_public)
    3953              
    3954              $C$DW$351       .dwtag  DW_TAG_member
    3955                      .dwattr $C$DW$351, DW_AT_type(*$C$DW$T$25)
    3956                      .dwattr $C$DW$351, DW_AT_name("OTW_REP")
    3957                      .dwattr $C$DW$351, DW_AT_TI_symbol_name("_OTW_REP")
    3958                      .dwattr $C$DW$351, DW_AT_data_member_location[DW_OP_plus_uconst 0x6]
    3959                      .dwattr $C$DW$351, DW_AT_accessibility(DW_ACCESS_public)
    3960              
    3961              $C$DW$352       .dwtag  DW_TAG_member
    3962                      .dwattr $C$DW$352, DW_AT_type(*$C$DW$T$25)
TMS320C2000 Assembler PC v15.12.3 Wed Jul 04 16:10:52 2018

Tools Copyright (c) 1996-2015 Texas Instruments Incorporated
C:\Users\a0393005\AppData\Local\Temp\1506410                         PAGE   76

    3963                      .dwattr $C$DW$352, DW_AT_name("DIS_GDF")
    3964                      .dwattr $C$DW$352, DW_AT_TI_symbol_name("_DIS_GDF")
    3965                      .dwattr $C$DW$352, DW_AT_data_member_location[DW_OP_plus_uconst 0x7]
    3966                      .dwattr $C$DW$352, DW_AT_accessibility(DW_ACCESS_public)
    3967              
    3968              $C$DW$353       .dwtag  DW_TAG_member
    3969                      .dwattr $C$DW$353, DW_AT_type(*$C$DW$T$25)
    3970                      .dwattr $C$DW$353, DW_AT_name("DIS_CPUV")
    3971                      .dwattr $C$DW$353, DW_AT_TI_symbol_name("_DIS_CPUV")
    3972                      .dwattr $C$DW$353, DW_AT_data_member_location[DW_OP_plus_uconst 0x8]
    3973                      .dwattr $C$DW$353, DW_AT_accessibility(DW_ACCESS_public)
    3974              
    3975              $C$DW$354       .dwtag  DW_TAG_member
    3976                      .dwattr $C$DW$354, DW_AT_type(*$C$DW$T$25)
    3977                      .dwattr $C$DW$354, DW_AT_name("OCP_ACT")
    3978                      .dwattr $C$DW$354, DW_AT_TI_symbol_name("_OCP_ACT")
    3979                      .dwattr $C$DW$354, DW_AT_data_member_location[DW_OP_plus_uconst 0x9]
    3980                      .dwattr $C$DW$354, DW_AT_accessibility(DW_ACCESS_public)
    3981              
    3982                      .dwendtag $C$DW$T$29
    3983              
    3984              $C$DW$T$63      .dwtag  DW_TAG_typedef
    3985                      .dwattr $C$DW$T$63, DW_AT_name("DRV_SPI_8353_Ctrl02_t_")
    3986                      .dwattr $C$DW$T$63, DW_AT_type(*$C$DW$T$29)
    3987                      .dwattr $C$DW$T$63, DW_AT_language(DW_LANG_C)
    3988              
    3989              
    3990              $C$DW$T$36      .dwtag  DW_TAG_structure_type
    3991                      .dwattr $C$DW$T$36, DW_AT_name("_DRV_SPI_8353_Ctrl03_t_")
    3992                      .dwattr $C$DW$T$36, DW_AT_byte_size(0x03)
    3993              $C$DW$355       .dwtag  DW_TAG_member
    3994                      .dwattr $C$DW$355, DW_AT_type(*$C$DW$T$31)
    3995                      .dwattr $C$DW$355, DW_AT_name("IDRIVEN_HS")
    3996                      .dwattr $C$DW$355, DW_AT_TI_symbol_name("_IDRIVEN_HS")
    3997                      .dwattr $C$DW$355, DW_AT_data_member_location[DW_OP_plus_uconst 0x0]
    3998                      .dwattr $C$DW$355, DW_AT_accessibility(DW_ACCESS_public)
    3999              
    4000              $C$DW$356       .dwtag  DW_TAG_member
    4001                      .dwattr $C$DW$356, DW_AT_type(*$C$DW$T$33)
    4002                      .dwattr $C$DW$356, DW_AT_name("IDRIVEP_HS")
    4003                      .dwattr $C$DW$356, DW_AT_TI_symbol_name("_IDRIVEP_HS")
    4004                      .dwattr $C$DW$356, DW_AT_data_member_location[DW_OP_plus_uconst 0x1]
    4005                      .dwattr $C$DW$356, DW_AT_accessibility(DW_ACCESS_public)
    4006              
    4007              $C$DW$357       .dwtag  DW_TAG_member
    4008                      .dwattr $C$DW$357, DW_AT_type(*$C$DW$T$35)
    4009                      .dwattr $C$DW$357, DW_AT_name("LOCK")
    4010                      .dwattr $C$DW$357, DW_AT_TI_symbol_name("_LOCK")
    4011                      .dwattr $C$DW$357, DW_AT_data_member_location[DW_OP_plus_uconst 0x2]
    4012                      .dwattr $C$DW$357, DW_AT_accessibility(DW_ACCESS_public)
    4013              
    4014                      .dwendtag $C$DW$T$36
    4015              
    4016              $C$DW$T$64      .dwtag  DW_TAG_typedef
    4017                      .dwattr $C$DW$T$64, DW_AT_name("DRV_SPI_8353_Ctrl03_t_")
TMS320C2000 Assembler PC v15.12.3 Wed Jul 04 16:10:52 2018

Tools Copyright (c) 1996-2015 Texas Instruments Incorporated
C:\Users\a0393005\AppData\Local\Temp\1506410                         PAGE   77

    4018                      .dwattr $C$DW$T$64, DW_AT_type(*$C$DW$T$36)
    4019                      .dwattr $C$DW$T$64, DW_AT_language(DW_LANG_C)
    4020              
    4021              
    4022              $C$DW$T$43      .dwtag  DW_TAG_structure_type
    4023                      .dwattr $C$DW$T$43, DW_AT_name("_DRV_SPI_8353_Ctrl04_t_")
    4024                      .dwattr $C$DW$T$43, DW_AT_byte_size(0x04)
    4025              $C$DW$358       .dwtag  DW_TAG_member
    4026                      .dwattr $C$DW$358, DW_AT_type(*$C$DW$T$38)
    4027                      .dwattr $C$DW$358, DW_AT_name("IDRIVEN_LS")
    4028                      .dwattr $C$DW$358, DW_AT_TI_symbol_name("_IDRIVEN_LS")
    4029                      .dwattr $C$DW$358, DW_AT_data_member_location[DW_OP_plus_uconst 0x0]
    4030                      .dwattr $C$DW$358, DW_AT_accessibility(DW_ACCESS_public)
    4031              
    4032              $C$DW$359       .dwtag  DW_TAG_member
    4033                      .dwattr $C$DW$359, DW_AT_type(*$C$DW$T$40)
    4034                      .dwattr $C$DW$359, DW_AT_name("IDRIVEP_LS")
    4035                      .dwattr $C$DW$359, DW_AT_TI_symbol_name("_IDRIVEP_LS")
    4036                      .dwattr $C$DW$359, DW_AT_data_member_location[DW_OP_plus_uconst 0x1]
    4037                      .dwattr $C$DW$359, DW_AT_accessibility(DW_ACCESS_public)
    4038              
    4039              $C$DW$360       .dwtag  DW_TAG_member
    4040                      .dwattr $C$DW$360, DW_AT_type(*$C$DW$T$42)
    4041                      .dwattr $C$DW$360, DW_AT_name("TDRIVE")
    4042                      .dwattr $C$DW$360, DW_AT_TI_symbol_name("_TDRIVE")
    4043                      .dwattr $C$DW$360, DW_AT_data_member_location[DW_OP_plus_uconst 0x2]
    4044                      .dwattr $C$DW$360, DW_AT_accessibility(DW_ACCESS_public)
    4045              
    4046              $C$DW$361       .dwtag  DW_TAG_member
    4047                      .dwattr $C$DW$361, DW_AT_type(*$C$DW$T$25)
    4048                      .dwattr $C$DW$361, DW_AT_name("CBC")
    4049                      .dwattr $C$DW$361, DW_AT_TI_symbol_name("_CBC")
    4050                      .dwattr $C$DW$361, DW_AT_data_member_location[DW_OP_plus_uconst 0x3]
    4051                      .dwattr $C$DW$361, DW_AT_accessibility(DW_ACCESS_public)
    4052              
    4053                      .dwendtag $C$DW$T$43
    4054              
    4055              $C$DW$T$65      .dwtag  DW_TAG_typedef
    4056                      .dwattr $C$DW$T$65, DW_AT_name("DRV_SPI_8353_Ctrl04_t_")
    4057                      .dwattr $C$DW$T$65, DW_AT_type(*$C$DW$T$43)
    4058                      .dwattr $C$DW$T$65, DW_AT_language(DW_LANG_C)
    4059              
    4060              
    4061              $C$DW$T$52      .dwtag  DW_TAG_structure_type
    4062                      .dwattr $C$DW$T$52, DW_AT_name("_DRV_SPI_8353_Ctrl05_t_")
    4063                      .dwattr $C$DW$T$52, DW_AT_byte_size(0x05)
    4064              $C$DW$362       .dwtag  DW_TAG_member
    4065                      .dwattr $C$DW$362, DW_AT_type(*$C$DW$T$45)
    4066                      .dwattr $C$DW$362, DW_AT_name("VDS_LVL")
    4067                      .dwattr $C$DW$362, DW_AT_TI_symbol_name("_VDS_LVL")
    4068                      .dwattr $C$DW$362, DW_AT_data_member_location[DW_OP_plus_uconst 0x0]
    4069                      .dwattr $C$DW$362, DW_AT_accessibility(DW_ACCESS_public)
    4070              
    4071              $C$DW$363       .dwtag  DW_TAG_member
    4072                      .dwattr $C$DW$363, DW_AT_type(*$C$DW$T$47)
TMS320C2000 Assembler PC v15.12.3 Wed Jul 04 16:10:52 2018

Tools Copyright (c) 1996-2015 Texas Instruments Incorporated
C:\Users\a0393005\AppData\Local\Temp\1506410                         PAGE   78

    4073                      .dwattr $C$DW$363, DW_AT_name("OCP_DEG")
    4074                      .dwattr $C$DW$363, DW_AT_TI_symbol_name("_OCP_DEG")
    4075                      .dwattr $C$DW$363, DW_AT_data_member_location[DW_OP_plus_uconst 0x1]
    4076                      .dwattr $C$DW$363, DW_AT_accessibility(DW_ACCESS_public)
    4077              
    4078              $C$DW$364       .dwtag  DW_TAG_member
    4079                      .dwattr $C$DW$364, DW_AT_type(*$C$DW$T$49)
    4080                      .dwattr $C$DW$364, DW_AT_name("OCP_MODE")
    4081                      .dwattr $C$DW$364, DW_AT_TI_symbol_name("_OCP_MODE")
    4082                      .dwattr $C$DW$364, DW_AT_data_member_location[DW_OP_plus_uconst 0x2]
    4083                      .dwattr $C$DW$364, DW_AT_accessibility(DW_ACCESS_public)
    4084              
    4085              $C$DW$365       .dwtag  DW_TAG_member
    4086                      .dwattr $C$DW$365, DW_AT_type(*$C$DW$T$51)
    4087                      .dwattr $C$DW$365, DW_AT_name("DEAD_TIME")
    4088                      .dwattr $C$DW$365, DW_AT_TI_symbol_name("_DEAD_TIME")
    4089                      .dwattr $C$DW$365, DW_AT_data_member_location[DW_OP_plus_uconst 0x3]
    4090                      .dwattr $C$DW$365, DW_AT_accessibility(DW_ACCESS_public)
    4091              
    4092              $C$DW$366       .dwtag  DW_TAG_member
    4093                      .dwattr $C$DW$366, DW_AT_type(*$C$DW$T$25)
    4094                      .dwattr $C$DW$366, DW_AT_name("TRETRY")
    4095                      .dwattr $C$DW$366, DW_AT_TI_symbol_name("_TRETRY")
    4096                      .dwattr $C$DW$366, DW_AT_data_member_location[DW_OP_plus_uconst 0x4]
    4097                      .dwattr $C$DW$366, DW_AT_accessibility(DW_ACCESS_public)
    4098              
    4099                      .dwendtag $C$DW$T$52
    4100              
    4101              $C$DW$T$66      .dwtag  DW_TAG_typedef
    4102                      .dwattr $C$DW$T$66, DW_AT_name("DRV_SPI_8353_Ctrl05_t_")
    4103                      .dwattr $C$DW$T$66, DW_AT_type(*$C$DW$T$52)
    4104                      .dwattr $C$DW$T$66, DW_AT_language(DW_LANG_C)
    4105              
    4106              
    4107              $C$DW$T$57      .dwtag  DW_TAG_structure_type
    4108                      .dwattr $C$DW$T$57, DW_AT_name("_DRV_SPI_8353_Ctrl06_t_")
    4109                      .dwattr $C$DW$T$57, DW_AT_byte_size(0x09)
    4110              $C$DW$367       .dwtag  DW_TAG_member
    4111                      .dwattr $C$DW$367, DW_AT_type(*$C$DW$T$54)
    4112                      .dwattr $C$DW$367, DW_AT_name("SEN_LVL")
    4113                      .dwattr $C$DW$367, DW_AT_TI_symbol_name("_SEN_LVL")
    4114                      .dwattr $C$DW$367, DW_AT_data_member_location[DW_OP_plus_uconst 0x0]
    4115                      .dwattr $C$DW$367, DW_AT_accessibility(DW_ACCESS_public)
    4116              
    4117              $C$DW$368       .dwtag  DW_TAG_member
    4118                      .dwattr $C$DW$368, DW_AT_type(*$C$DW$T$25)
    4119                      .dwattr $C$DW$368, DW_AT_name("CSA_CAL_C")
    4120                      .dwattr $C$DW$368, DW_AT_TI_symbol_name("_CSA_CAL_C")
    4121                      .dwattr $C$DW$368, DW_AT_data_member_location[DW_OP_plus_uconst 0x1]
    4122                      .dwattr $C$DW$368, DW_AT_accessibility(DW_ACCESS_public)
    4123              
    4124              $C$DW$369       .dwtag  DW_TAG_member
    4125                      .dwattr $C$DW$369, DW_AT_type(*$C$DW$T$25)
    4126                      .dwattr $C$DW$369, DW_AT_name("CSA_CAL_B")
    4127                      .dwattr $C$DW$369, DW_AT_TI_symbol_name("_CSA_CAL_B")
TMS320C2000 Assembler PC v15.12.3 Wed Jul 04 16:10:52 2018

Tools Copyright (c) 1996-2015 Texas Instruments Incorporated
C:\Users\a0393005\AppData\Local\Temp\1506410                         PAGE   79

    4128                      .dwattr $C$DW$369, DW_AT_data_member_location[DW_OP_plus_uconst 0x2]
    4129                      .dwattr $C$DW$369, DW_AT_accessibility(DW_ACCESS_public)
    4130              
    4131              $C$DW$370       .dwtag  DW_TAG_member
    4132                      .dwattr $C$DW$370, DW_AT_type(*$C$DW$T$25)
    4133                      .dwattr $C$DW$370, DW_AT_name("CSA_CAL_A")
    4134                      .dwattr $C$DW$370, DW_AT_TI_symbol_name("_CSA_CAL_A")
    4135                      .dwattr $C$DW$370, DW_AT_data_member_location[DW_OP_plus_uconst 0x3]
    4136                      .dwattr $C$DW$370, DW_AT_accessibility(DW_ACCESS_public)
    4137              
    4138              $C$DW$371       .dwtag  DW_TAG_member
    4139                      .dwattr $C$DW$371, DW_AT_type(*$C$DW$T$25)
    4140                      .dwattr $C$DW$371, DW_AT_name("DIS_SEN")
    4141                      .dwattr $C$DW$371, DW_AT_TI_symbol_name("_DIS_SEN")
    4142                      .dwattr $C$DW$371, DW_AT_data_member_location[DW_OP_plus_uconst 0x4]
    4143                      .dwattr $C$DW$371, DW_AT_accessibility(DW_ACCESS_public)
    4144              
    4145              $C$DW$372       .dwtag  DW_TAG_member
    4146                      .dwattr $C$DW$372, DW_AT_type(*$C$DW$T$56)
    4147                      .dwattr $C$DW$372, DW_AT_name("CSA_GAIN")
    4148                      .dwattr $C$DW$372, DW_AT_TI_symbol_name("_CSA_GAIN")
    4149                      .dwattr $C$DW$372, DW_AT_data_member_location[DW_OP_plus_uconst 0x5]
    4150                      .dwattr $C$DW$372, DW_AT_accessibility(DW_ACCESS_public)
    4151              
    4152              $C$DW$373       .dwtag  DW_TAG_member
    4153                      .dwattr $C$DW$373, DW_AT_type(*$C$DW$T$25)
    4154                      .dwattr $C$DW$373, DW_AT_name("LS_REF")
    4155                      .dwattr $C$DW$373, DW_AT_TI_symbol_name("_LS_REF")
    4156                      .dwattr $C$DW$373, DW_AT_data_member_location[DW_OP_plus_uconst 0x6]
    4157                      .dwattr $C$DW$373, DW_AT_accessibility(DW_ACCESS_public)
    4158              
    4159              $C$DW$374       .dwtag  DW_TAG_member
    4160                      .dwattr $C$DW$374, DW_AT_type(*$C$DW$T$25)
    4161                      .dwattr $C$DW$374, DW_AT_name("VREF_DIV")
    4162                      .dwattr $C$DW$374, DW_AT_TI_symbol_name("_VREF_DIV")
    4163                      .dwattr $C$DW$374, DW_AT_data_member_location[DW_OP_plus_uconst 0x7]
    4164                      .dwattr $C$DW$374, DW_AT_accessibility(DW_ACCESS_public)
    4165              
    4166              $C$DW$375       .dwtag  DW_TAG_member
    4167                      .dwattr $C$DW$375, DW_AT_type(*$C$DW$T$25)
    4168                      .dwattr $C$DW$375, DW_AT_name("CSA_FET")
    4169                      .dwattr $C$DW$375, DW_AT_TI_symbol_name("_CSA_FET")
    4170                      .dwattr $C$DW$375, DW_AT_data_member_location[DW_OP_plus_uconst 0x8]
    4171                      .dwattr $C$DW$375, DW_AT_accessibility(DW_ACCESS_public)
    4172              
    4173                      .dwendtag $C$DW$T$57
    4174              
    4175              $C$DW$T$67      .dwtag  DW_TAG_typedef
    4176                      .dwattr $C$DW$T$67, DW_AT_name("DRV_SPI_8353_Ctrl06_t_")
    4177                      .dwattr $C$DW$T$67, DW_AT_type(*$C$DW$T$57)
    4178                      .dwattr $C$DW$T$67, DW_AT_language(DW_LANG_C)
    4179              
    4180              
    4181              $C$DW$T$58      .dwtag  DW_TAG_structure_type
    4182                      .dwattr $C$DW$T$58, DW_AT_name("_DRV_SPI_8353_Ctrl07_t_")
TMS320C2000 Assembler PC v15.12.3 Wed Jul 04 16:10:52 2018

Tools Copyright (c) 1996-2015 Texas Instruments Incorporated
C:\Users\a0393005\AppData\Local\Temp\1506410                         PAGE   80

    4183                      .dwattr $C$DW$T$58, DW_AT_byte_size(0x0b)
    4184              $C$DW$376       .dwtag  DW_TAG_member
    4185                      .dwattr $C$DW$376, DW_AT_type(*$C$DW$T$25)
    4186                      .dwattr $C$DW$376, DW_AT_name("CAL_MODE")
    4187                      .dwattr $C$DW$376, DW_AT_TI_symbol_name("_CAL_MODE")
    4188                      .dwattr $C$DW$376, DW_AT_data_member_location[DW_OP_plus_uconst 0x0]
    4189                      .dwattr $C$DW$376, DW_AT_accessibility(DW_ACCESS_public)
    4190              
    4191              $C$DW$377       .dwtag  DW_TAG_member
    4192                      .dwattr $C$DW$377, DW_AT_type(*$C$DW$T$25)
    4193                      .dwattr $C$DW$377, DW_AT_name("RESERVED_1")
    4194                      .dwattr $C$DW$377, DW_AT_TI_symbol_name("_RESERVED_1")
    4195                      .dwattr $C$DW$377, DW_AT_data_member_location[DW_OP_plus_uconst 0x1]
    4196                      .dwattr $C$DW$377, DW_AT_accessibility(DW_ACCESS_public)
    4197              
    4198              $C$DW$378       .dwtag  DW_TAG_member
    4199                      .dwattr $C$DW$378, DW_AT_type(*$C$DW$T$25)
    4200                      .dwattr $C$DW$378, DW_AT_name("RESERVED_2")
    4201                      .dwattr $C$DW$378, DW_AT_TI_symbol_name("_RESERVED_2")
    4202                      .dwattr $C$DW$378, DW_AT_data_member_location[DW_OP_plus_uconst 0x2]
    4203                      .dwattr $C$DW$378, DW_AT_accessibility(DW_ACCESS_public)
    4204              
    4205              $C$DW$379       .dwtag  DW_TAG_member
    4206                      .dwattr $C$DW$379, DW_AT_type(*$C$DW$T$25)
    4207                      .dwattr $C$DW$379, DW_AT_name("RESERVED_3")
    4208                      .dwattr $C$DW$379, DW_AT_TI_symbol_name("_RESERVED_3")
    4209                      .dwattr $C$DW$379, DW_AT_data_member_location[DW_OP_plus_uconst 0x3]
    4210                      .dwattr $C$DW$379, DW_AT_accessibility(DW_ACCESS_public)
    4211              
    4212              $C$DW$380       .dwtag  DW_TAG_member
    4213                      .dwattr $C$DW$380, DW_AT_type(*$C$DW$T$25)
    4214                      .dwattr $C$DW$380, DW_AT_name("RESERVED_4")
    4215                      .dwattr $C$DW$380, DW_AT_TI_symbol_name("_RESERVED_4")
    4216                      .dwattr $C$DW$380, DW_AT_data_member_location[DW_OP_plus_uconst 0x4]
    4217                      .dwattr $C$DW$380, DW_AT_accessibility(DW_ACCESS_public)
    4218              
    4219              $C$DW$381       .dwtag  DW_TAG_member
    4220                      .dwattr $C$DW$381, DW_AT_type(*$C$DW$T$25)
    4221                      .dwattr $C$DW$381, DW_AT_name("RESERVED_5")
    4222                      .dwattr $C$DW$381, DW_AT_TI_symbol_name("_RESERVED_5")
    4223                      .dwattr $C$DW$381, DW_AT_data_member_location[DW_OP_plus_uconst 0x5]
    4224                      .dwattr $C$DW$381, DW_AT_accessibility(DW_ACCESS_public)
    4225              
    4226              $C$DW$382       .dwtag  DW_TAG_member
    4227                      .dwattr $C$DW$382, DW_AT_type(*$C$DW$T$25)
    4228                      .dwattr $C$DW$382, DW_AT_name("RESERVED_6")
    4229                      .dwattr $C$DW$382, DW_AT_TI_symbol_name("_RESERVED_6")
    4230                      .dwattr $C$DW$382, DW_AT_data_member_location[DW_OP_plus_uconst 0x6]
    4231                      .dwattr $C$DW$382, DW_AT_accessibility(DW_ACCESS_public)
    4232              
    4233              $C$DW$383       .dwtag  DW_TAG_member
    4234                      .dwattr $C$DW$383, DW_AT_type(*$C$DW$T$25)
    4235                      .dwattr $C$DW$383, DW_AT_name("RESERVED_7")
    4236                      .dwattr $C$DW$383, DW_AT_TI_symbol_name("_RESERVED_7")
    4237                      .dwattr $C$DW$383, DW_AT_data_member_location[DW_OP_plus_uconst 0x7]
TMS320C2000 Assembler PC v15.12.3 Wed Jul 04 16:10:52 2018

Tools Copyright (c) 1996-2015 Texas Instruments Incorporated
C:\Users\a0393005\AppData\Local\Temp\1506410                         PAGE   81

    4238                      .dwattr $C$DW$383, DW_AT_accessibility(DW_ACCESS_public)
    4239              
    4240              $C$DW$384       .dwtag  DW_TAG_member
    4241                      .dwattr $C$DW$384, DW_AT_type(*$C$DW$T$25)
    4242                      .dwattr $C$DW$384, DW_AT_name("RESERVED_8")
    4243                      .dwattr $C$DW$384, DW_AT_TI_symbol_name("_RESERVED_8")
    4244                      .dwattr $C$DW$384, DW_AT_data_member_location[DW_OP_plus_uconst 0x8]
    4245                      .dwattr $C$DW$384, DW_AT_accessibility(DW_ACCESS_public)
    4246              
    4247              $C$DW$385       .dwtag  DW_TAG_member
    4248                      .dwattr $C$DW$385, DW_AT_type(*$C$DW$T$25)
    4249                      .dwattr $C$DW$385, DW_AT_name("RESERVED_9")
    4250                      .dwattr $C$DW$385, DW_AT_TI_symbol_name("_RESERVED_9")
    4251                      .dwattr $C$DW$385, DW_AT_data_member_location[DW_OP_plus_uconst 0x9]
    4252                      .dwattr $C$DW$385, DW_AT_accessibility(DW_ACCESS_public)
    4253              
    4254              $C$DW$386       .dwtag  DW_TAG_member
    4255                      .dwattr $C$DW$386, DW_AT_type(*$C$DW$T$25)
    4256                      .dwattr $C$DW$386, DW_AT_name("RESERVED_10")
    4257                      .dwattr $C$DW$386, DW_AT_TI_symbol_name("_RESERVED_10")
    4258                      .dwattr $C$DW$386, DW_AT_data_member_location[DW_OP_plus_uconst 0xa]
    4259                      .dwattr $C$DW$386, DW_AT_accessibility(DW_ACCESS_public)
    4260              
    4261                      .dwendtag $C$DW$T$58
    4262              
    4263              $C$DW$T$68      .dwtag  DW_TAG_typedef
    4264                      .dwattr $C$DW$T$68, DW_AT_name("DRV_SPI_8353_Ctrl07_t_")
    4265                      .dwattr $C$DW$T$68, DW_AT_type(*$C$DW$T$58)
    4266                      .dwattr $C$DW$T$68, DW_AT_language(DW_LANG_C)
    4267              
    4268              
    4269              $C$DW$T$59      .dwtag  DW_TAG_structure_type
    4270                      .dwattr $C$DW$T$59, DW_AT_name("_DRV_SPI_8353_Stat00_t_")
    4271                      .dwattr $C$DW$T$59, DW_AT_byte_size(0x0b)
    4272              $C$DW$387       .dwtag  DW_TAG_member
    4273                      .dwattr $C$DW$387, DW_AT_type(*$C$DW$T$25)
    4274                      .dwattr $C$DW$387, DW_AT_name("VDS_LC")
    4275                      .dwattr $C$DW$387, DW_AT_TI_symbol_name("_VDS_LC")
    4276                      .dwattr $C$DW$387, DW_AT_data_member_location[DW_OP_plus_uconst 0x0]
    4277                      .dwattr $C$DW$387, DW_AT_accessibility(DW_ACCESS_public)
    4278              
    4279              $C$DW$388       .dwtag  DW_TAG_member
    4280                      .dwattr $C$DW$388, DW_AT_type(*$C$DW$T$25)
    4281                      .dwattr $C$DW$388, DW_AT_name("VDS_HC")
    4282                      .dwattr $C$DW$388, DW_AT_TI_symbol_name("_VDS_HC")
    4283                      .dwattr $C$DW$388, DW_AT_data_member_location[DW_OP_plus_uconst 0x1]
    4284                      .dwattr $C$DW$388, DW_AT_accessibility(DW_ACCESS_public)
    4285              
    4286              $C$DW$389       .dwtag  DW_TAG_member
    4287                      .dwattr $C$DW$389, DW_AT_type(*$C$DW$T$25)
    4288                      .dwattr $C$DW$389, DW_AT_name("VDS_LB")
    4289                      .dwattr $C$DW$389, DW_AT_TI_symbol_name("_VDS_LB")
    4290                      .dwattr $C$DW$389, DW_AT_data_member_location[DW_OP_plus_uconst 0x2]
    4291                      .dwattr $C$DW$389, DW_AT_accessibility(DW_ACCESS_public)
    4292              
TMS320C2000 Assembler PC v15.12.3 Wed Jul 04 16:10:52 2018

Tools Copyright (c) 1996-2015 Texas Instruments Incorporated
C:\Users\a0393005\AppData\Local\Temp\1506410                         PAGE   82

    4293              $C$DW$390       .dwtag  DW_TAG_member
    4294                      .dwattr $C$DW$390, DW_AT_type(*$C$DW$T$25)
    4295                      .dwattr $C$DW$390, DW_AT_name("VDS_HB")
    4296                      .dwattr $C$DW$390, DW_AT_TI_symbol_name("_VDS_HB")
    4297                      .dwattr $C$DW$390, DW_AT_data_member_location[DW_OP_plus_uconst 0x3]
    4298                      .dwattr $C$DW$390, DW_AT_accessibility(DW_ACCESS_public)
    4299              
    4300              $C$DW$391       .dwtag  DW_TAG_member
    4301                      .dwattr $C$DW$391, DW_AT_type(*$C$DW$T$25)
    4302                      .dwattr $C$DW$391, DW_AT_name("VDS_LA")
    4303                      .dwattr $C$DW$391, DW_AT_TI_symbol_name("_VDS_LA")
    4304                      .dwattr $C$DW$391, DW_AT_data_member_location[DW_OP_plus_uconst 0x4]
    4305                      .dwattr $C$DW$391, DW_AT_accessibility(DW_ACCESS_public)
    4306              
    4307              $C$DW$392       .dwtag  DW_TAG_member
    4308                      .dwattr $C$DW$392, DW_AT_type(*$C$DW$T$25)
    4309                      .dwattr $C$DW$392, DW_AT_name("VDS_HA")
    4310                      .dwattr $C$DW$392, DW_AT_TI_symbol_name("_VDS_HA")
    4311                      .dwattr $C$DW$392, DW_AT_data_member_location[DW_OP_plus_uconst 0x5]
    4312                      .dwattr $C$DW$392, DW_AT_accessibility(DW_ACCESS_public)
    4313              
    4314              $C$DW$393       .dwtag  DW_TAG_member
    4315                      .dwattr $C$DW$393, DW_AT_type(*$C$DW$T$25)
    4316                      .dwattr $C$DW$393, DW_AT_name("OTSD")
    4317                      .dwattr $C$DW$393, DW_AT_TI_symbol_name("_OTSD")
    4318                      .dwattr $C$DW$393, DW_AT_data_member_location[DW_OP_plus_uconst 0x6]
    4319                      .dwattr $C$DW$393, DW_AT_accessibility(DW_ACCESS_public)
    4320              
    4321              $C$DW$394       .dwtag  DW_TAG_member
    4322                      .dwattr $C$DW$394, DW_AT_type(*$C$DW$T$25)
    4323                      .dwattr $C$DW$394, DW_AT_name("UVLO")
    4324                      .dwattr $C$DW$394, DW_AT_TI_symbol_name("_UVLO")
    4325                      .dwattr $C$DW$394, DW_AT_data_member_location[DW_OP_plus_uconst 0x7]
    4326                      .dwattr $C$DW$394, DW_AT_accessibility(DW_ACCESS_public)
    4327              
    4328              $C$DW$395       .dwtag  DW_TAG_member
    4329                      .dwattr $C$DW$395, DW_AT_type(*$C$DW$T$25)
    4330                      .dwattr $C$DW$395, DW_AT_name("GDF")
    4331                      .dwattr $C$DW$395, DW_AT_TI_symbol_name("_GDF")
    4332                      .dwattr $C$DW$395, DW_AT_data_member_location[DW_OP_plus_uconst 0x8]
    4333                      .dwattr $C$DW$395, DW_AT_accessibility(DW_ACCESS_public)
    4334              
    4335              $C$DW$396       .dwtag  DW_TAG_member
    4336                      .dwattr $C$DW$396, DW_AT_type(*$C$DW$T$25)
    4337                      .dwattr $C$DW$396, DW_AT_name("VDS_OCP")
    4338                      .dwattr $C$DW$396, DW_AT_TI_symbol_name("_VDS_OCP")
    4339                      .dwattr $C$DW$396, DW_AT_data_member_location[DW_OP_plus_uconst 0x9]
    4340                      .dwattr $C$DW$396, DW_AT_accessibility(DW_ACCESS_public)
    4341              
    4342              $C$DW$397       .dwtag  DW_TAG_member
    4343                      .dwattr $C$DW$397, DW_AT_type(*$C$DW$T$25)
    4344                      .dwattr $C$DW$397, DW_AT_name("FAULT")
    4345                      .dwattr $C$DW$397, DW_AT_TI_symbol_name("_FAULT")
    4346                      .dwattr $C$DW$397, DW_AT_data_member_location[DW_OP_plus_uconst 0xa]
    4347                      .dwattr $C$DW$397, DW_AT_accessibility(DW_ACCESS_public)
TMS320C2000 Assembler PC v15.12.3 Wed Jul 04 16:10:52 2018

Tools Copyright (c) 1996-2015 Texas Instruments Incorporated
C:\Users\a0393005\AppData\Local\Temp\1506410                         PAGE   83

    4348              
    4349                      .dwendtag $C$DW$T$59
    4350              
    4351              $C$DW$T$61      .dwtag  DW_TAG_typedef
    4352                      .dwattr $C$DW$T$61, DW_AT_name("DRV_SPI_8353_Stat00_t_")
    4353                      .dwattr $C$DW$T$61, DW_AT_type(*$C$DW$T$59)
    4354                      .dwattr $C$DW$T$61, DW_AT_language(DW_LANG_C)
    4355              
    4356              
    4357              $C$DW$T$60      .dwtag  DW_TAG_structure_type
    4358                      .dwattr $C$DW$T$60, DW_AT_name("_DRV_SPI_8353_Stat01_t_")
    4359                      .dwattr $C$DW$T$60, DW_AT_byte_size(0x0b)
    4360              $C$DW$398       .dwtag  DW_TAG_member
    4361                      .dwattr $C$DW$398, DW_AT_type(*$C$DW$T$25)
    4362                      .dwattr $C$DW$398, DW_AT_name("VGS_LC")
    4363                      .dwattr $C$DW$398, DW_AT_TI_symbol_name("_VGS_LC")
    4364                      .dwattr $C$DW$398, DW_AT_data_member_location[DW_OP_plus_uconst 0x0]
    4365                      .dwattr $C$DW$398, DW_AT_accessibility(DW_ACCESS_public)
    4366              
    4367              $C$DW$399       .dwtag  DW_TAG_member
    4368                      .dwattr $C$DW$399, DW_AT_type(*$C$DW$T$25)
    4369                      .dwattr $C$DW$399, DW_AT_name("VGS_HC")
    4370                      .dwattr $C$DW$399, DW_AT_TI_symbol_name("_VGS_HC")
    4371                      .dwattr $C$DW$399, DW_AT_data_member_location[DW_OP_plus_uconst 0x1]
    4372                      .dwattr $C$DW$399, DW_AT_accessibility(DW_ACCESS_public)
    4373              
    4374              $C$DW$400       .dwtag  DW_TAG_member
    4375                      .dwattr $C$DW$400, DW_AT_type(*$C$DW$T$25)
    4376                      .dwattr $C$DW$400, DW_AT_name("VGS_LB")
    4377                      .dwattr $C$DW$400, DW_AT_TI_symbol_name("_VGS_LB")
    4378                      .dwattr $C$DW$400, DW_AT_data_member_location[DW_OP_plus_uconst 0x2]
    4379                      .dwattr $C$DW$400, DW_AT_accessibility(DW_ACCESS_public)
    4380              
    4381              $C$DW$401       .dwtag  DW_TAG_member
    4382                      .dwattr $C$DW$401, DW_AT_type(*$C$DW$T$25)
    4383                      .dwattr $C$DW$401, DW_AT_name("VGS_HB")
    4384                      .dwattr $C$DW$401, DW_AT_TI_symbol_name("_VGS_HB")
    4385                      .dwattr $C$DW$401, DW_AT_data_member_location[DW_OP_plus_uconst 0x3]
    4386                      .dwattr $C$DW$401, DW_AT_accessibility(DW_ACCESS_public)
    4387              
    4388              $C$DW$402       .dwtag  DW_TAG_member
    4389                      .dwattr $C$DW$402, DW_AT_type(*$C$DW$T$25)
    4390                      .dwattr $C$DW$402, DW_AT_name("VGS_LA")
    4391                      .dwattr $C$DW$402, DW_AT_TI_symbol_name("_VGS_LA")
    4392                      .dwattr $C$DW$402, DW_AT_data_member_location[DW_OP_plus_uconst 0x4]
    4393                      .dwattr $C$DW$402, DW_AT_accessibility(DW_ACCESS_public)
    4394              
    4395              $C$DW$403       .dwtag  DW_TAG_member
    4396                      .dwattr $C$DW$403, DW_AT_type(*$C$DW$T$25)
    4397                      .dwattr $C$DW$403, DW_AT_name("VGS_HA")
    4398                      .dwattr $C$DW$403, DW_AT_TI_symbol_name("_VGS_HA")
    4399                      .dwattr $C$DW$403, DW_AT_data_member_location[DW_OP_plus_uconst 0x5]
    4400                      .dwattr $C$DW$403, DW_AT_accessibility(DW_ACCESS_public)
    4401              
    4402              $C$DW$404       .dwtag  DW_TAG_member
TMS320C2000 Assembler PC v15.12.3 Wed Jul 04 16:10:52 2018

Tools Copyright (c) 1996-2015 Texas Instruments Incorporated
C:\Users\a0393005\AppData\Local\Temp\1506410                         PAGE   84

    4403                      .dwattr $C$DW$404, DW_AT_type(*$C$DW$T$25)
    4404                      .dwattr $C$DW$404, DW_AT_name("GDUV")
    4405                      .dwattr $C$DW$404, DW_AT_TI_symbol_name("_GDUV")
    4406                      .dwattr $C$DW$404, DW_AT_data_member_location[DW_OP_plus_uconst 0x6]
    4407                      .dwattr $C$DW$404, DW_AT_accessibility(DW_ACCESS_public)
    4408              
    4409              $C$DW$405       .dwtag  DW_TAG_member
    4410                      .dwattr $C$DW$405, DW_AT_type(*$C$DW$T$25)
    4411                      .dwattr $C$DW$405, DW_AT_name("OTW")
    4412                      .dwattr $C$DW$405, DW_AT_TI_symbol_name("_OTW")
    4413                      .dwattr $C$DW$405, DW_AT_data_member_location[DW_OP_plus_uconst 0x7]
    4414                      .dwattr $C$DW$405, DW_AT_accessibility(DW_ACCESS_public)
    4415              
    4416              $C$DW$406       .dwtag  DW_TAG_member
    4417                      .dwattr $C$DW$406, DW_AT_type(*$C$DW$T$25)
    4418                      .dwattr $C$DW$406, DW_AT_name("SC_OC")
    4419                      .dwattr $C$DW$406, DW_AT_TI_symbol_name("_SC_OC")
    4420                      .dwattr $C$DW$406, DW_AT_data_member_location[DW_OP_plus_uconst 0x8]
    4421                      .dwattr $C$DW$406, DW_AT_accessibility(DW_ACCESS_public)
    4422              
    4423              $C$DW$407       .dwtag  DW_TAG_member
    4424                      .dwattr $C$DW$407, DW_AT_type(*$C$DW$T$25)
    4425                      .dwattr $C$DW$407, DW_AT_name("SB_OC")
    4426                      .dwattr $C$DW$407, DW_AT_TI_symbol_name("_SB_OC")
    4427                      .dwattr $C$DW$407, DW_AT_data_member_location[DW_OP_plus_uconst 0x9]
    4428                      .dwattr $C$DW$407, DW_AT_accessibility(DW_ACCESS_public)
    4429              
    4430              $C$DW$408       .dwtag  DW_TAG_member
    4431                      .dwattr $C$DW$408, DW_AT_type(*$C$DW$T$25)
    4432                      .dwattr $C$DW$408, DW_AT_name("SA_OC")
    4433                      .dwattr $C$DW$408, DW_AT_TI_symbol_name("_SA_OC")
    4434                      .dwattr $C$DW$408, DW_AT_data_member_location[DW_OP_plus_uconst 0xa]
    4435                      .dwattr $C$DW$408, DW_AT_accessibility(DW_ACCESS_public)
    4436              
    4437                      .dwendtag $C$DW$T$60
    4438              
    4439              $C$DW$T$62      .dwtag  DW_TAG_typedef
    4440                      .dwattr $C$DW$T$62, DW_AT_name("DRV_SPI_8353_Stat01_t_")
    4441                      .dwattr $C$DW$T$62, DW_AT_type(*$C$DW$T$60)
    4442                      .dwattr $C$DW$T$62, DW_AT_language(DW_LANG_C)
    4443              
    4444              
    4445              $C$DW$T$70      .dwtag  DW_TAG_structure_type
    4446                      .dwattr $C$DW$T$70, DW_AT_name("_DRV_SPI_8353_Vars_t_")
    4447                      .dwattr $C$DW$T$70, DW_AT_byte_size(0x48)
    4448              $C$DW$409       .dwtag  DW_TAG_member
    4449                      .dwattr $C$DW$409, DW_AT_type(*$C$DW$T$61)
    4450                      .dwattr $C$DW$409, DW_AT_name("Stat_Reg_00")
    4451                      .dwattr $C$DW$409, DW_AT_TI_symbol_name("_Stat_Reg_00")
    4452                      .dwattr $C$DW$409, DW_AT_data_member_location[DW_OP_plus_uconst 0x0]
    4453                      .dwattr $C$DW$409, DW_AT_accessibility(DW_ACCESS_public)
    4454              
    4455              $C$DW$410       .dwtag  DW_TAG_member
    4456                      .dwattr $C$DW$410, DW_AT_type(*$C$DW$T$62)
    4457                      .dwattr $C$DW$410, DW_AT_name("Stat_Reg_01")
TMS320C2000 Assembler PC v15.12.3 Wed Jul 04 16:10:52 2018

Tools Copyright (c) 1996-2015 Texas Instruments Incorporated
C:\Users\a0393005\AppData\Local\Temp\1506410                         PAGE   85

    4458                      .dwattr $C$DW$410, DW_AT_TI_symbol_name("_Stat_Reg_01")
    4459                      .dwattr $C$DW$410, DW_AT_data_member_location[DW_OP_plus_uconst 0xb]
    4460                      .dwattr $C$DW$410, DW_AT_accessibility(DW_ACCESS_public)
    4461              
    4462              $C$DW$411       .dwtag  DW_TAG_member
    4463                      .dwattr $C$DW$411, DW_AT_type(*$C$DW$T$63)
    4464                      .dwattr $C$DW$411, DW_AT_name("Ctrl_Reg_02")
    4465                      .dwattr $C$DW$411, DW_AT_TI_symbol_name("_Ctrl_Reg_02")
    4466                      .dwattr $C$DW$411, DW_AT_data_member_location[DW_OP_plus_uconst 0x16]
    4467                      .dwattr $C$DW$411, DW_AT_accessibility(DW_ACCESS_public)
    4468              
    4469              $C$DW$412       .dwtag  DW_TAG_member
    4470                      .dwattr $C$DW$412, DW_AT_type(*$C$DW$T$64)
    4471                      .dwattr $C$DW$412, DW_AT_name("Ctrl_Reg_03")
    4472                      .dwattr $C$DW$412, DW_AT_TI_symbol_name("_Ctrl_Reg_03")
    4473                      .dwattr $C$DW$412, DW_AT_data_member_location[DW_OP_plus_uconst 0x20]
    4474                      .dwattr $C$DW$412, DW_AT_accessibility(DW_ACCESS_public)
    4475              
    4476              $C$DW$413       .dwtag  DW_TAG_member
    4477                      .dwattr $C$DW$413, DW_AT_type(*$C$DW$T$65)
    4478                      .dwattr $C$DW$413, DW_AT_name("Ctrl_Reg_04")
    4479                      .dwattr $C$DW$413, DW_AT_TI_symbol_name("_Ctrl_Reg_04")
    4480                      .dwattr $C$DW$413, DW_AT_data_member_location[DW_OP_plus_uconst 0x23]
    4481                      .dwattr $C$DW$413, DW_AT_accessibility(DW_ACCESS_public)
    4482              
    4483              $C$DW$414       .dwtag  DW_TAG_member
    4484                      .dwattr $C$DW$414, DW_AT_type(*$C$DW$T$66)
    4485                      .dwattr $C$DW$414, DW_AT_name("Ctrl_Reg_05")
    4486                      .dwattr $C$DW$414, DW_AT_TI_symbol_name("_Ctrl_Reg_05")
    4487                      .dwattr $C$DW$414, DW_AT_data_member_location[DW_OP_plus_uconst 0x27]
    4488                      .dwattr $C$DW$414, DW_AT_accessibility(DW_ACCESS_public)
    4489              
    4490              $C$DW$415       .dwtag  DW_TAG_member
    4491                      .dwattr $C$DW$415, DW_AT_type(*$C$DW$T$67)
    4492                      .dwattr $C$DW$415, DW_AT_name("Ctrl_Reg_06")
    4493                      .dwattr $C$DW$415, DW_AT_TI_symbol_name("_Ctrl_Reg_06")
    4494                      .dwattr $C$DW$415, DW_AT_data_member_location[DW_OP_plus_uconst 0x2c]
    4495                      .dwattr $C$DW$415, DW_AT_accessibility(DW_ACCESS_public)
    4496              
    4497              $C$DW$416       .dwtag  DW_TAG_member
    4498                      .dwattr $C$DW$416, DW_AT_type(*$C$DW$T$68)
    4499                      .dwattr $C$DW$416, DW_AT_name("Ctrl_Reg_07")
    4500                      .dwattr $C$DW$416, DW_AT_TI_symbol_name("_Ctrl_Reg_07")
    4501                      .dwattr $C$DW$416, DW_AT_data_member_location[DW_OP_plus_uconst 0x35]
    4502                      .dwattr $C$DW$416, DW_AT_accessibility(DW_ACCESS_public)
    4503              
    4504              $C$DW$417       .dwtag  DW_TAG_member
    4505                      .dwattr $C$DW$417, DW_AT_type(*$C$DW$T$25)
    4506                      .dwattr $C$DW$417, DW_AT_name("WriteCmd")
    4507                      .dwattr $C$DW$417, DW_AT_TI_symbol_name("_WriteCmd")
    4508                      .dwattr $C$DW$417, DW_AT_data_member_location[DW_OP_plus_uconst 0x40]
    4509                      .dwattr $C$DW$417, DW_AT_accessibility(DW_ACCESS_public)
    4510              
    4511              $C$DW$418       .dwtag  DW_TAG_member
    4512                      .dwattr $C$DW$418, DW_AT_type(*$C$DW$T$25)
TMS320C2000 Assembler PC v15.12.3 Wed Jul 04 16:10:52 2018

Tools Copyright (c) 1996-2015 Texas Instruments Incorporated
C:\Users\a0393005\AppData\Local\Temp\1506410                         PAGE   86

    4513                      .dwattr $C$DW$418, DW_AT_name("ReadCmd")
    4514                      .dwattr $C$DW$418, DW_AT_TI_symbol_name("_ReadCmd")
    4515                      .dwattr $C$DW$418, DW_AT_data_member_location[DW_OP_plus_uconst 0x41]
    4516                      .dwattr $C$DW$418, DW_AT_accessibility(DW_ACCESS_public)
    4517              
    4518              $C$DW$419       .dwtag  DW_TAG_member
    4519                      .dwattr $C$DW$419, DW_AT_type(*$C$DW$T$69)
    4520                      .dwattr $C$DW$419, DW_AT_name("ManWriteAddr")
    4521                      .dwattr $C$DW$419, DW_AT_TI_symbol_name("_ManWriteAddr")
    4522                      .dwattr $C$DW$419, DW_AT_data_member_location[DW_OP_plus_uconst 0x42]
    4523                      .dwattr $C$DW$419, DW_AT_accessibility(DW_ACCESS_public)
    4524              
    4525              $C$DW$420       .dwtag  DW_TAG_member
    4526                      .dwattr $C$DW$420, DW_AT_type(*$C$DW$T$69)
    4527                      .dwattr $C$DW$420, DW_AT_name("ManReadAddr")
    4528                      .dwattr $C$DW$420, DW_AT_TI_symbol_name("_ManReadAddr")
    4529                      .dwattr $C$DW$420, DW_AT_data_member_location[DW_OP_plus_uconst 0x43]
    4530                      .dwattr $C$DW$420, DW_AT_accessibility(DW_ACCESS_public)
    4531              
    4532              $C$DW$421       .dwtag  DW_TAG_member
    4533                      .dwattr $C$DW$421, DW_AT_type(*$C$DW$T$69)
    4534                      .dwattr $C$DW$421, DW_AT_name("ManWriteData")
    4535                      .dwattr $C$DW$421, DW_AT_TI_symbol_name("_ManWriteData")
    4536                      .dwattr $C$DW$421, DW_AT_data_member_location[DW_OP_plus_uconst 0x44]
    4537                      .dwattr $C$DW$421, DW_AT_accessibility(DW_ACCESS_public)
    4538              
    4539              $C$DW$422       .dwtag  DW_TAG_member
    4540                      .dwattr $C$DW$422, DW_AT_type(*$C$DW$T$69)
    4541                      .dwattr $C$DW$422, DW_AT_name("ManReadData")
    4542                      .dwattr $C$DW$422, DW_AT_TI_symbol_name("_ManReadData")
    4543                      .dwattr $C$DW$422, DW_AT_data_member_location[DW_OP_plus_uconst 0x45]
    4544                      .dwattr $C$DW$422, DW_AT_accessibility(DW_ACCESS_public)
    4545              
    4546              $C$DW$423       .dwtag  DW_TAG_member
    4547                      .dwattr $C$DW$423, DW_AT_type(*$C$DW$T$25)
    4548                      .dwattr $C$DW$423, DW_AT_name("ManWriteCmd")
    4549                      .dwattr $C$DW$423, DW_AT_TI_symbol_name("_ManWriteCmd")
    4550                      .dwattr $C$DW$423, DW_AT_data_member_location[DW_OP_plus_uconst 0x46]
    4551                      .dwattr $C$DW$423, DW_AT_accessibility(DW_ACCESS_public)
    4552              
    4553              $C$DW$424       .dwtag  DW_TAG_member
    4554                      .dwattr $C$DW$424, DW_AT_type(*$C$DW$T$25)
    4555                      .dwattr $C$DW$424, DW_AT_name("ManReadCmd")
    4556                      .dwattr $C$DW$424, DW_AT_TI_symbol_name("_ManReadCmd")
    4557                      .dwattr $C$DW$424, DW_AT_data_member_location[DW_OP_plus_uconst 0x47]
    4558                      .dwattr $C$DW$424, DW_AT_accessibility(DW_ACCESS_public)
    4559              
    4560                      .dwendtag $C$DW$T$70
    4561              
    4562              $C$DW$T$121     .dwtag  DW_TAG_typedef
    4563                      .dwattr $C$DW$T$121, DW_AT_name("DRV_SPI_8353_Vars_t")
    4564                      .dwattr $C$DW$T$121, DW_AT_type(*$C$DW$T$70)
    4565                      .dwattr $C$DW$T$121, DW_AT_language(DW_LANG_C)
    4566              
    4567              $C$DW$T$122     .dwtag  DW_TAG_pointer_type
TMS320C2000 Assembler PC v15.12.3 Wed Jul 04 16:10:52 2018

Tools Copyright (c) 1996-2015 Texas Instruments Incorporated
C:\Users\a0393005\AppData\Local\Temp\1506410                         PAGE   87

    4568                      .dwattr $C$DW$T$122, DW_AT_type(*$C$DW$T$121)
    4569                      .dwattr $C$DW$T$122, DW_AT_address_class(0x20)
    4570              
    4571              $C$DW$425       .dwtag  DW_TAG_TI_far_type
    4572                      .dwattr $C$DW$425, DW_AT_type(*$C$DW$T$122)
    4573              
    4574              $C$DW$T$123     .dwtag  DW_TAG_const_type
    4575                      .dwattr $C$DW$T$123, DW_AT_type(*$C$DW$425)
    4576              
    4577              
    4578              $C$DW$T$80      .dwtag  DW_TAG_structure_type
    4579                      .dwattr $C$DW$T$80, DW_AT_name("_GPIO_Obj_")
    4580                      .dwattr $C$DW$T$80, DW_AT_byte_size(0x6a)
    4581              $C$DW$426       .dwtag  DW_TAG_member
    4582                      .dwattr $C$DW$426, DW_AT_type(*$C$DW$T$72)
    4583                      .dwattr $C$DW$426, DW_AT_name("GPACTRL")
    4584                      .dwattr $C$DW$426, DW_AT_TI_symbol_name("_GPACTRL")
    4585                      .dwattr $C$DW$426, DW_AT_data_member_location[DW_OP_plus_uconst 0x0]
    4586                      .dwattr $C$DW$426, DW_AT_accessibility(DW_ACCESS_public)
    4587              
    4588              $C$DW$427       .dwtag  DW_TAG_member
    4589                      .dwattr $C$DW$427, DW_AT_type(*$C$DW$T$72)
    4590                      .dwattr $C$DW$427, DW_AT_name("GPAQSEL1")
    4591                      .dwattr $C$DW$427, DW_AT_TI_symbol_name("_GPAQSEL1")
    4592                      .dwattr $C$DW$427, DW_AT_data_member_location[DW_OP_plus_uconst 0x2]
    4593                      .dwattr $C$DW$427, DW_AT_accessibility(DW_ACCESS_public)
    4594              
    4595              $C$DW$428       .dwtag  DW_TAG_member
    4596                      .dwattr $C$DW$428, DW_AT_type(*$C$DW$T$72)
    4597                      .dwattr $C$DW$428, DW_AT_name("GPAQSEL2")
    4598                      .dwattr $C$DW$428, DW_AT_TI_symbol_name("_GPAQSEL2")
    4599                      .dwattr $C$DW$428, DW_AT_data_member_location[DW_OP_plus_uconst 0x4]
    4600                      .dwattr $C$DW$428, DW_AT_accessibility(DW_ACCESS_public)
    4601              
    4602              $C$DW$429       .dwtag  DW_TAG_member
    4603                      .dwattr $C$DW$429, DW_AT_type(*$C$DW$T$72)
    4604                      .dwattr $C$DW$429, DW_AT_name("GPAMUX1")
    4605                      .dwattr $C$DW$429, DW_AT_TI_symbol_name("_GPAMUX1")
    4606                      .dwattr $C$DW$429, DW_AT_data_member_location[DW_OP_plus_uconst 0x6]
    4607                      .dwattr $C$DW$429, DW_AT_accessibility(DW_ACCESS_public)
    4608              
    4609              $C$DW$430       .dwtag  DW_TAG_member
    4610                      .dwattr $C$DW$430, DW_AT_type(*$C$DW$T$72)
    4611                      .dwattr $C$DW$430, DW_AT_name("GPAMUX2")
    4612                      .dwattr $C$DW$430, DW_AT_TI_symbol_name("_GPAMUX2")
    4613                      .dwattr $C$DW$430, DW_AT_data_member_location[DW_OP_plus_uconst 0x8]
    4614                      .dwattr $C$DW$430, DW_AT_accessibility(DW_ACCESS_public)
    4615              
    4616              $C$DW$431       .dwtag  DW_TAG_member
    4617                      .dwattr $C$DW$431, DW_AT_type(*$C$DW$T$72)
    4618                      .dwattr $C$DW$431, DW_AT_name("GPADIR")
    4619                      .dwattr $C$DW$431, DW_AT_TI_symbol_name("_GPADIR")
    4620                      .dwattr $C$DW$431, DW_AT_data_member_location[DW_OP_plus_uconst 0xa]
    4621                      .dwattr $C$DW$431, DW_AT_accessibility(DW_ACCESS_public)
    4622              
TMS320C2000 Assembler PC v15.12.3 Wed Jul 04 16:10:52 2018

Tools Copyright (c) 1996-2015 Texas Instruments Incorporated
C:\Users\a0393005\AppData\Local\Temp\1506410                         PAGE   88

    4623              $C$DW$432       .dwtag  DW_TAG_member
    4624                      .dwattr $C$DW$432, DW_AT_type(*$C$DW$T$72)
    4625                      .dwattr $C$DW$432, DW_AT_name("GPAPUD")
    4626                      .dwattr $C$DW$432, DW_AT_TI_symbol_name("_GPAPUD")
    4627                      .dwattr $C$DW$432, DW_AT_data_member_location[DW_OP_plus_uconst 0xc]
    4628                      .dwattr $C$DW$432, DW_AT_accessibility(DW_ACCESS_public)
    4629              
    4630              $C$DW$433       .dwtag  DW_TAG_member
    4631                      .dwattr $C$DW$433, DW_AT_type(*$C$DW$T$74)
    4632                      .dwattr $C$DW$433, DW_AT_name("rsvd_1")
    4633                      .dwattr $C$DW$433, DW_AT_TI_symbol_name("_rsvd_1")
    4634                      .dwattr $C$DW$433, DW_AT_data_member_location[DW_OP_plus_uconst 0xe]
    4635                      .dwattr $C$DW$433, DW_AT_accessibility(DW_ACCESS_public)
    4636              
    4637              $C$DW$434       .dwtag  DW_TAG_member
    4638                      .dwattr $C$DW$434, DW_AT_type(*$C$DW$T$72)
    4639                      .dwattr $C$DW$434, DW_AT_name("GPBCTRL")
    4640                      .dwattr $C$DW$434, DW_AT_TI_symbol_name("_GPBCTRL")
    4641                      .dwattr $C$DW$434, DW_AT_data_member_location[DW_OP_plus_uconst 0x10]
    4642                      .dwattr $C$DW$434, DW_AT_accessibility(DW_ACCESS_public)
    4643              
    4644              $C$DW$435       .dwtag  DW_TAG_member
    4645                      .dwattr $C$DW$435, DW_AT_type(*$C$DW$T$72)
    4646                      .dwattr $C$DW$435, DW_AT_name("GPBQSEL1")
    4647                      .dwattr $C$DW$435, DW_AT_TI_symbol_name("_GPBQSEL1")
    4648                      .dwattr $C$DW$435, DW_AT_data_member_location[DW_OP_plus_uconst 0x12]
    4649                      .dwattr $C$DW$435, DW_AT_accessibility(DW_ACCESS_public)
    4650              
    4651              $C$DW$436       .dwtag  DW_TAG_member
    4652                      .dwattr $C$DW$436, DW_AT_type(*$C$DW$T$74)
    4653                      .dwattr $C$DW$436, DW_AT_name("rsvd_2")
    4654                      .dwattr $C$DW$436, DW_AT_TI_symbol_name("_rsvd_2")
    4655                      .dwattr $C$DW$436, DW_AT_data_member_location[DW_OP_plus_uconst 0x14]
    4656                      .dwattr $C$DW$436, DW_AT_accessibility(DW_ACCESS_public)
    4657              
    4658              $C$DW$437       .dwtag  DW_TAG_member
    4659                      .dwattr $C$DW$437, DW_AT_type(*$C$DW$T$72)
    4660                      .dwattr $C$DW$437, DW_AT_name("GPBMUX1")
    4661                      .dwattr $C$DW$437, DW_AT_TI_symbol_name("_GPBMUX1")
    4662                      .dwattr $C$DW$437, DW_AT_data_member_location[DW_OP_plus_uconst 0x16]
    4663                      .dwattr $C$DW$437, DW_AT_accessibility(DW_ACCESS_public)
    4664              
    4665              $C$DW$438       .dwtag  DW_TAG_member
    4666                      .dwattr $C$DW$438, DW_AT_type(*$C$DW$T$74)
    4667                      .dwattr $C$DW$438, DW_AT_name("rsvd_3")
    4668                      .dwattr $C$DW$438, DW_AT_TI_symbol_name("_rsvd_3")
    4669                      .dwattr $C$DW$438, DW_AT_data_member_location[DW_OP_plus_uconst 0x18]
    4670                      .dwattr $C$DW$438, DW_AT_accessibility(DW_ACCESS_public)
    4671              
    4672              $C$DW$439       .dwtag  DW_TAG_member
    4673                      .dwattr $C$DW$439, DW_AT_type(*$C$DW$T$72)
    4674                      .dwattr $C$DW$439, DW_AT_name("GPBDIR")
    4675                      .dwattr $C$DW$439, DW_AT_TI_symbol_name("_GPBDIR")
    4676                      .dwattr $C$DW$439, DW_AT_data_member_location[DW_OP_plus_uconst 0x1a]
    4677                      .dwattr $C$DW$439, DW_AT_accessibility(DW_ACCESS_public)
TMS320C2000 Assembler PC v15.12.3 Wed Jul 04 16:10:52 2018

Tools Copyright (c) 1996-2015 Texas Instruments Incorporated
C:\Users\a0393005\AppData\Local\Temp\1506410                         PAGE   89

    4678              
    4679              $C$DW$440       .dwtag  DW_TAG_member
    4680                      .dwattr $C$DW$440, DW_AT_type(*$C$DW$T$72)
    4681                      .dwattr $C$DW$440, DW_AT_name("GPBPUD")
    4682                      .dwattr $C$DW$440, DW_AT_TI_symbol_name("_GPBPUD")
    4683                      .dwattr $C$DW$440, DW_AT_data_member_location[DW_OP_plus_uconst 0x1c]
    4684                      .dwattr $C$DW$440, DW_AT_accessibility(DW_ACCESS_public)
    4685              
    4686              $C$DW$441       .dwtag  DW_TAG_member
    4687                      .dwattr $C$DW$441, DW_AT_type(*$C$DW$T$75)
    4688                      .dwattr $C$DW$441, DW_AT_name("rsvd_4")
    4689                      .dwattr $C$DW$441, DW_AT_TI_symbol_name("_rsvd_4")
    4690                      .dwattr $C$DW$441, DW_AT_data_member_location[DW_OP_plus_uconst 0x1e]
    4691                      .dwattr $C$DW$441, DW_AT_accessibility(DW_ACCESS_public)
    4692              
    4693              $C$DW$442       .dwtag  DW_TAG_member
    4694                      .dwattr $C$DW$442, DW_AT_type(*$C$DW$T$72)
    4695                      .dwattr $C$DW$442, DW_AT_name("AIOMUX1")
    4696                      .dwattr $C$DW$442, DW_AT_TI_symbol_name("_AIOMUX1")
    4697                      .dwattr $C$DW$442, DW_AT_data_member_location[DW_OP_plus_uconst 0x36]
    4698                      .dwattr $C$DW$442, DW_AT_accessibility(DW_ACCESS_public)
    4699              
    4700              $C$DW$443       .dwtag  DW_TAG_member
    4701                      .dwattr $C$DW$443, DW_AT_type(*$C$DW$T$74)
    4702                      .dwattr $C$DW$443, DW_AT_name("rsvd_5")
    4703                      .dwattr $C$DW$443, DW_AT_TI_symbol_name("_rsvd_5")
    4704                      .dwattr $C$DW$443, DW_AT_data_member_location[DW_OP_plus_uconst 0x38]
    4705                      .dwattr $C$DW$443, DW_AT_accessibility(DW_ACCESS_public)
    4706              
    4707              $C$DW$444       .dwtag  DW_TAG_member
    4708                      .dwattr $C$DW$444, DW_AT_type(*$C$DW$T$72)
    4709                      .dwattr $C$DW$444, DW_AT_name("AIODIR")
    4710                      .dwattr $C$DW$444, DW_AT_TI_symbol_name("_AIODIR")
    4711                      .dwattr $C$DW$444, DW_AT_data_member_location[DW_OP_plus_uconst 0x3a]
    4712                      .dwattr $C$DW$444, DW_AT_accessibility(DW_ACCESS_public)
    4713              
    4714              $C$DW$445       .dwtag  DW_TAG_member
    4715                      .dwattr $C$DW$445, DW_AT_type(*$C$DW$T$76)
    4716                      .dwattr $C$DW$445, DW_AT_name("rsvd_6")
    4717                      .dwattr $C$DW$445, DW_AT_TI_symbol_name("_rsvd_6")
    4718                      .dwattr $C$DW$445, DW_AT_data_member_location[DW_OP_plus_uconst 0x3c]
    4719                      .dwattr $C$DW$445, DW_AT_accessibility(DW_ACCESS_public)
    4720              
    4721              $C$DW$446       .dwtag  DW_TAG_member
    4722                      .dwattr $C$DW$446, DW_AT_type(*$C$DW$T$72)
    4723                      .dwattr $C$DW$446, DW_AT_name("GPADAT")
    4724                      .dwattr $C$DW$446, DW_AT_TI_symbol_name("_GPADAT")
    4725                      .dwattr $C$DW$446, DW_AT_data_member_location[DW_OP_plus_uconst 0x40]
    4726                      .dwattr $C$DW$446, DW_AT_accessibility(DW_ACCESS_public)
    4727              
    4728              $C$DW$447       .dwtag  DW_TAG_member
    4729                      .dwattr $C$DW$447, DW_AT_type(*$C$DW$T$72)
    4730                      .dwattr $C$DW$447, DW_AT_name("GPASET")
    4731                      .dwattr $C$DW$447, DW_AT_TI_symbol_name("_GPASET")
    4732                      .dwattr $C$DW$447, DW_AT_data_member_location[DW_OP_plus_uconst 0x42]
TMS320C2000 Assembler PC v15.12.3 Wed Jul 04 16:10:52 2018

Tools Copyright (c) 1996-2015 Texas Instruments Incorporated
C:\Users\a0393005\AppData\Local\Temp\1506410                         PAGE   90

    4733                      .dwattr $C$DW$447, DW_AT_accessibility(DW_ACCESS_public)
    4734              
    4735              $C$DW$448       .dwtag  DW_TAG_member
    4736                      .dwattr $C$DW$448, DW_AT_type(*$C$DW$T$72)
    4737                      .dwattr $C$DW$448, DW_AT_name("GPACLEAR")
    4738                      .dwattr $C$DW$448, DW_AT_TI_symbol_name("_GPACLEAR")
    4739                      .dwattr $C$DW$448, DW_AT_data_member_location[DW_OP_plus_uconst 0x44]
    4740                      .dwattr $C$DW$448, DW_AT_accessibility(DW_ACCESS_public)
    4741              
    4742              $C$DW$449       .dwtag  DW_TAG_member
    4743                      .dwattr $C$DW$449, DW_AT_type(*$C$DW$T$72)
    4744                      .dwattr $C$DW$449, DW_AT_name("GPATOGGLE")
    4745                      .dwattr $C$DW$449, DW_AT_TI_symbol_name("_GPATOGGLE")
    4746                      .dwattr $C$DW$449, DW_AT_data_member_location[DW_OP_plus_uconst 0x46]
    4747                      .dwattr $C$DW$449, DW_AT_accessibility(DW_ACCESS_public)
    4748              
    4749              $C$DW$450       .dwtag  DW_TAG_member
    4750                      .dwattr $C$DW$450, DW_AT_type(*$C$DW$T$72)
    4751                      .dwattr $C$DW$450, DW_AT_name("GPBDAT")
    4752                      .dwattr $C$DW$450, DW_AT_TI_symbol_name("_GPBDAT")
    4753                      .dwattr $C$DW$450, DW_AT_data_member_location[DW_OP_plus_uconst 0x48]
    4754                      .dwattr $C$DW$450, DW_AT_accessibility(DW_ACCESS_public)
    4755              
    4756              $C$DW$451       .dwtag  DW_TAG_member
    4757                      .dwattr $C$DW$451, DW_AT_type(*$C$DW$T$72)
    4758                      .dwattr $C$DW$451, DW_AT_name("GPBSET")
    4759                      .dwattr $C$DW$451, DW_AT_TI_symbol_name("_GPBSET")
    4760                      .dwattr $C$DW$451, DW_AT_data_member_location[DW_OP_plus_uconst 0x4a]
    4761                      .dwattr $C$DW$451, DW_AT_accessibility(DW_ACCESS_public)
    4762              
    4763              $C$DW$452       .dwtag  DW_TAG_member
    4764                      .dwattr $C$DW$452, DW_AT_type(*$C$DW$T$72)
    4765                      .dwattr $C$DW$452, DW_AT_name("GPBCLEAR")
    4766                      .dwattr $C$DW$452, DW_AT_TI_symbol_name("_GPBCLEAR")
    4767                      .dwattr $C$DW$452, DW_AT_data_member_location[DW_OP_plus_uconst 0x4c]
    4768                      .dwattr $C$DW$452, DW_AT_accessibility(DW_ACCESS_public)
    4769              
    4770              $C$DW$453       .dwtag  DW_TAG_member
    4771                      .dwattr $C$DW$453, DW_AT_type(*$C$DW$T$72)
    4772                      .dwattr $C$DW$453, DW_AT_name("GPBTOGGLE")
    4773                      .dwattr $C$DW$453, DW_AT_TI_symbol_name("_GPBTOGGLE")
    4774                      .dwattr $C$DW$453, DW_AT_data_member_location[DW_OP_plus_uconst 0x4e]
    4775                      .dwattr $C$DW$453, DW_AT_accessibility(DW_ACCESS_public)
    4776              
    4777              $C$DW$454       .dwtag  DW_TAG_member
    4778                      .dwattr $C$DW$454, DW_AT_type(*$C$DW$T$77)
    4779                      .dwattr $C$DW$454, DW_AT_name("rsvd_7")
    4780                      .dwattr $C$DW$454, DW_AT_TI_symbol_name("_rsvd_7")
    4781                      .dwattr $C$DW$454, DW_AT_data_member_location[DW_OP_plus_uconst 0x50]
    4782                      .dwattr $C$DW$454, DW_AT_accessibility(DW_ACCESS_public)
    4783              
    4784              $C$DW$455       .dwtag  DW_TAG_member
    4785                      .dwattr $C$DW$455, DW_AT_type(*$C$DW$T$72)
    4786                      .dwattr $C$DW$455, DW_AT_name("AIODAT")
    4787                      .dwattr $C$DW$455, DW_AT_TI_symbol_name("_AIODAT")
TMS320C2000 Assembler PC v15.12.3 Wed Jul 04 16:10:52 2018

Tools Copyright (c) 1996-2015 Texas Instruments Incorporated
C:\Users\a0393005\AppData\Local\Temp\1506410                         PAGE   91

    4788                      .dwattr $C$DW$455, DW_AT_data_member_location[DW_OP_plus_uconst 0x58]
    4789                      .dwattr $C$DW$455, DW_AT_accessibility(DW_ACCESS_public)
    4790              
    4791              $C$DW$456       .dwtag  DW_TAG_member
    4792                      .dwattr $C$DW$456, DW_AT_type(*$C$DW$T$72)
    4793                      .dwattr $C$DW$456, DW_AT_name("AIOSET")
    4794                      .dwattr $C$DW$456, DW_AT_TI_symbol_name("_AIOSET")
    4795                      .dwattr $C$DW$456, DW_AT_data_member_location[DW_OP_plus_uconst 0x5a]
    4796                      .dwattr $C$DW$456, DW_AT_accessibility(DW_ACCESS_public)
    4797              
    4798              $C$DW$457       .dwtag  DW_TAG_member
    4799                      .dwattr $C$DW$457, DW_AT_type(*$C$DW$T$72)
    4800                      .dwattr $C$DW$457, DW_AT_name("AIOCLEAR")
    4801                      .dwattr $C$DW$457, DW_AT_TI_symbol_name("_AIOCLEAR")
    4802                      .dwattr $C$DW$457, DW_AT_data_member_location[DW_OP_plus_uconst 0x5c]
    4803                      .dwattr $C$DW$457, DW_AT_accessibility(DW_ACCESS_public)
    4804              
    4805              $C$DW$458       .dwtag  DW_TAG_member
    4806                      .dwattr $C$DW$458, DW_AT_type(*$C$DW$T$72)
    4807                      .dwattr $C$DW$458, DW_AT_name("AIOTOGGLE")
    4808                      .dwattr $C$DW$458, DW_AT_TI_symbol_name("_AIOTOGGLE")
    4809                      .dwattr $C$DW$458, DW_AT_data_member_location[DW_OP_plus_uconst 0x5e]
    4810                      .dwattr $C$DW$458, DW_AT_accessibility(DW_ACCESS_public)
    4811              
    4812              $C$DW$459       .dwtag  DW_TAG_member
    4813                      .dwattr $C$DW$459, DW_AT_type(*$C$DW$T$78)
    4814                      .dwattr $C$DW$459, DW_AT_name("GPIOXINTnSEL")
    4815                      .dwattr $C$DW$459, DW_AT_TI_symbol_name("_GPIOXINTnSEL")
    4816                      .dwattr $C$DW$459, DW_AT_data_member_location[DW_OP_plus_uconst 0x60]
    4817                      .dwattr $C$DW$459, DW_AT_accessibility(DW_ACCESS_public)
    4818              
    4819              $C$DW$460       .dwtag  DW_TAG_member
    4820                      .dwattr $C$DW$460, DW_AT_type(*$C$DW$T$79)
    4821                      .dwattr $C$DW$460, DW_AT_name("rsvd_8")
    4822                      .dwattr $C$DW$460, DW_AT_TI_symbol_name("_rsvd_8")
    4823                      .dwattr $C$DW$460, DW_AT_data_member_location[DW_OP_plus_uconst 0x63]
    4824                      .dwattr $C$DW$460, DW_AT_accessibility(DW_ACCESS_public)
    4825              
    4826              $C$DW$461       .dwtag  DW_TAG_member
    4827                      .dwattr $C$DW$461, DW_AT_type(*$C$DW$T$72)
    4828                      .dwattr $C$DW$461, DW_AT_name("GPIOLPMSEL")
    4829                      .dwattr $C$DW$461, DW_AT_TI_symbol_name("_GPIOLPMSEL")
    4830                      .dwattr $C$DW$461, DW_AT_data_member_location[DW_OP_plus_uconst 0x68]
    4831                      .dwattr $C$DW$461, DW_AT_accessibility(DW_ACCESS_public)
    4832              
    4833                      .dwendtag $C$DW$T$80
    4834              
    4835              $C$DW$T$21      .dwtag  DW_TAG_pointer_type
    4836                      .dwattr $C$DW$T$21, DW_AT_type(*$C$DW$T$80)
    4837                      .dwattr $C$DW$T$21, DW_AT_address_class(0x20)
    4838              
    4839              $C$DW$T$22      .dwtag  DW_TAG_typedef
    4840                      .dwattr $C$DW$T$22, DW_AT_name("GPIO_Handle")
    4841                      .dwattr $C$DW$T$22, DW_AT_type(*$C$DW$T$21)
    4842                      .dwattr $C$DW$T$22, DW_AT_language(DW_LANG_C)
TMS320C2000 Assembler PC v15.12.3 Wed Jul 04 16:10:52 2018

Tools Copyright (c) 1996-2015 Texas Instruments Incorporated
C:\Users\a0393005\AppData\Local\Temp\1506410                         PAGE   92

    4843              
    4844              $C$DW$462       .dwtag  DW_TAG_TI_far_type
    4845                      .dwattr $C$DW$462, DW_AT_type(*$C$DW$T$22)
    4846              
    4847              $C$DW$T$126     .dwtag  DW_TAG_const_type
    4848                      .dwattr $C$DW$T$126, DW_AT_type(*$C$DW$462)
    4849              
    4850              
    4851              $C$DW$T$81      .dwtag  DW_TAG_structure_type
    4852                      .dwattr $C$DW$T$81, DW_AT_name("_SPI_Obj_")
    4853                      .dwattr $C$DW$T$81, DW_AT_byte_size(0x10)
    4854              $C$DW$463       .dwtag  DW_TAG_member
    4855                      .dwattr $C$DW$463, DW_AT_type(*$C$DW$T$73)
    4856                      .dwattr $C$DW$463, DW_AT_name("SPICCR")
    4857                      .dwattr $C$DW$463, DW_AT_TI_symbol_name("_SPICCR")
    4858                      .dwattr $C$DW$463, DW_AT_data_member_location[DW_OP_plus_uconst 0x0]
    4859                      .dwattr $C$DW$463, DW_AT_accessibility(DW_ACCESS_public)
    4860              
    4861              $C$DW$464       .dwtag  DW_TAG_member
    4862                      .dwattr $C$DW$464, DW_AT_type(*$C$DW$T$73)
    4863                      .dwattr $C$DW$464, DW_AT_name("SPICTL")
    4864                      .dwattr $C$DW$464, DW_AT_TI_symbol_name("_SPICTL")
    4865                      .dwattr $C$DW$464, DW_AT_data_member_location[DW_OP_plus_uconst 0x1]
    4866                      .dwattr $C$DW$464, DW_AT_accessibility(DW_ACCESS_public)
    4867              
    4868              $C$DW$465       .dwtag  DW_TAG_member
    4869                      .dwattr $C$DW$465, DW_AT_type(*$C$DW$T$73)
    4870                      .dwattr $C$DW$465, DW_AT_name("SPIST")
    4871                      .dwattr $C$DW$465, DW_AT_TI_symbol_name("_SPIST")
    4872                      .dwattr $C$DW$465, DW_AT_data_member_location[DW_OP_plus_uconst 0x2]
    4873                      .dwattr $C$DW$465, DW_AT_accessibility(DW_ACCESS_public)
    4874              
    4875              $C$DW$466       .dwtag  DW_TAG_member
    4876                      .dwattr $C$DW$466, DW_AT_type(*$C$DW$T$73)
    4877                      .dwattr $C$DW$466, DW_AT_name("rsvd_1")
    4878                      .dwattr $C$DW$466, DW_AT_TI_symbol_name("_rsvd_1")
    4879                      .dwattr $C$DW$466, DW_AT_data_member_location[DW_OP_plus_uconst 0x3]
    4880                      .dwattr $C$DW$466, DW_AT_accessibility(DW_ACCESS_public)
    4881              
    4882              $C$DW$467       .dwtag  DW_TAG_member
    4883                      .dwattr $C$DW$467, DW_AT_type(*$C$DW$T$73)
    4884                      .dwattr $C$DW$467, DW_AT_name("SPIBRR")
    4885                      .dwattr $C$DW$467, DW_AT_TI_symbol_name("_SPIBRR")
    4886                      .dwattr $C$DW$467, DW_AT_data_member_location[DW_OP_plus_uconst 0x4]
    4887                      .dwattr $C$DW$467, DW_AT_accessibility(DW_ACCESS_public)
    4888              
    4889              $C$DW$468       .dwtag  DW_TAG_member
    4890                      .dwattr $C$DW$468, DW_AT_type(*$C$DW$T$73)
    4891                      .dwattr $C$DW$468, DW_AT_name("rsvd_2")
    4892                      .dwattr $C$DW$468, DW_AT_TI_symbol_name("_rsvd_2")
    4893                      .dwattr $C$DW$468, DW_AT_data_member_location[DW_OP_plus_uconst 0x5]
    4894                      .dwattr $C$DW$468, DW_AT_accessibility(DW_ACCESS_public)
    4895              
    4896              $C$DW$469       .dwtag  DW_TAG_member
    4897                      .dwattr $C$DW$469, DW_AT_type(*$C$DW$T$73)
TMS320C2000 Assembler PC v15.12.3 Wed Jul 04 16:10:52 2018

Tools Copyright (c) 1996-2015 Texas Instruments Incorporated
C:\Users\a0393005\AppData\Local\Temp\1506410                         PAGE   93

    4898                      .dwattr $C$DW$469, DW_AT_name("SPIEMU")
    4899                      .dwattr $C$DW$469, DW_AT_TI_symbol_name("_SPIEMU")
    4900                      .dwattr $C$DW$469, DW_AT_data_member_location[DW_OP_plus_uconst 0x6]
    4901                      .dwattr $C$DW$469, DW_AT_accessibility(DW_ACCESS_public)
    4902              
    4903              $C$DW$470       .dwtag  DW_TAG_member
    4904                      .dwattr $C$DW$470, DW_AT_type(*$C$DW$T$73)
    4905                      .dwattr $C$DW$470, DW_AT_name("SPIRXBUF")
    4906                      .dwattr $C$DW$470, DW_AT_TI_symbol_name("_SPIRXBUF")
    4907                      .dwattr $C$DW$470, DW_AT_data_member_location[DW_OP_plus_uconst 0x7]
    4908                      .dwattr $C$DW$470, DW_AT_accessibility(DW_ACCESS_public)
    4909              
    4910              $C$DW$471       .dwtag  DW_TAG_member
    4911                      .dwattr $C$DW$471, DW_AT_type(*$C$DW$T$73)
    4912                      .dwattr $C$DW$471, DW_AT_name("SPITXBUF")
    4913                      .dwattr $C$DW$471, DW_AT_TI_symbol_name("_SPITXBUF")
    4914                      .dwattr $C$DW$471, DW_AT_data_member_location[DW_OP_plus_uconst 0x8]
    4915                      .dwattr $C$DW$471, DW_AT_accessibility(DW_ACCESS_public)
    4916              
    4917              $C$DW$472       .dwtag  DW_TAG_member
    4918                      .dwattr $C$DW$472, DW_AT_type(*$C$DW$T$73)
    4919                      .dwattr $C$DW$472, DW_AT_name("SPIDAT")
    4920                      .dwattr $C$DW$472, DW_AT_TI_symbol_name("_SPIDAT")
    4921                      .dwattr $C$DW$472, DW_AT_data_member_location[DW_OP_plus_uconst 0x9]
    4922                      .dwattr $C$DW$472, DW_AT_accessibility(DW_ACCESS_public)
    4923              
    4924              $C$DW$473       .dwtag  DW_TAG_member
    4925                      .dwattr $C$DW$473, DW_AT_type(*$C$DW$T$73)
    4926                      .dwattr $C$DW$473, DW_AT_name("SPIFFTX")
    4927                      .dwattr $C$DW$473, DW_AT_TI_symbol_name("_SPIFFTX")
    4928                      .dwattr $C$DW$473, DW_AT_data_member_location[DW_OP_plus_uconst 0xa]
    4929                      .dwattr $C$DW$473, DW_AT_accessibility(DW_ACCESS_public)
    4930              
    4931              $C$DW$474       .dwtag  DW_TAG_member
    4932                      .dwattr $C$DW$474, DW_AT_type(*$C$DW$T$73)
    4933                      .dwattr $C$DW$474, DW_AT_name("SPIFFRX")
    4934                      .dwattr $C$DW$474, DW_AT_TI_symbol_name("_SPIFFRX")
    4935                      .dwattr $C$DW$474, DW_AT_data_member_location[DW_OP_plus_uconst 0xb]
    4936                      .dwattr $C$DW$474, DW_AT_accessibility(DW_ACCESS_public)
    4937              
    4938              $C$DW$475       .dwtag  DW_TAG_member
    4939                      .dwattr $C$DW$475, DW_AT_type(*$C$DW$T$73)
    4940                      .dwattr $C$DW$475, DW_AT_name("SPIFFCT")
    4941                      .dwattr $C$DW$475, DW_AT_TI_symbol_name("_SPIFFCT")
    4942                      .dwattr $C$DW$475, DW_AT_data_member_location[DW_OP_plus_uconst 0xc]
    4943                      .dwattr $C$DW$475, DW_AT_accessibility(DW_ACCESS_public)
    4944              
    4945              $C$DW$476       .dwtag  DW_TAG_member
    4946                      .dwattr $C$DW$476, DW_AT_type(*$C$DW$T$74)
    4947                      .dwattr $C$DW$476, DW_AT_name("rsvd_3")
    4948                      .dwattr $C$DW$476, DW_AT_TI_symbol_name("_rsvd_3")
    4949                      .dwattr $C$DW$476, DW_AT_data_member_location[DW_OP_plus_uconst 0xd]
    4950                      .dwattr $C$DW$476, DW_AT_accessibility(DW_ACCESS_public)
    4951              
    4952              $C$DW$477       .dwtag  DW_TAG_member
TMS320C2000 Assembler PC v15.12.3 Wed Jul 04 16:10:52 2018

Tools Copyright (c) 1996-2015 Texas Instruments Incorporated
C:\Users\a0393005\AppData\Local\Temp\1506410                         PAGE   94

    4953                      .dwattr $C$DW$477, DW_AT_type(*$C$DW$T$73)
    4954                      .dwattr $C$DW$477, DW_AT_name("SPIPRI")
    4955                      .dwattr $C$DW$477, DW_AT_TI_symbol_name("_SPIPRI")
    4956                      .dwattr $C$DW$477, DW_AT_data_member_location[DW_OP_plus_uconst 0xf]
    4957                      .dwattr $C$DW$477, DW_AT_accessibility(DW_ACCESS_public)
    4958              
    4959                      .dwendtag $C$DW$T$81
    4960              
    4961              $C$DW$T$128     .dwtag  DW_TAG_typedef
    4962                      .dwattr $C$DW$T$128, DW_AT_name("SPI_Obj")
    4963                      .dwattr $C$DW$T$128, DW_AT_type(*$C$DW$T$81)
    4964                      .dwattr $C$DW$T$128, DW_AT_language(DW_LANG_C)
    4965              
    4966              $C$DW$T$19      .dwtag  DW_TAG_pointer_type
    4967                      .dwattr $C$DW$T$19, DW_AT_type(*$C$DW$T$81)
    4968                      .dwattr $C$DW$T$19, DW_AT_address_class(0x20)
    4969              
    4970              $C$DW$T$20      .dwtag  DW_TAG_typedef
    4971                      .dwattr $C$DW$T$20, DW_AT_name("SPI_Handle")
    4972                      .dwattr $C$DW$T$20, DW_AT_type(*$C$DW$T$19)
    4973                      .dwattr $C$DW$T$20, DW_AT_language(DW_LANG_C)
    4974              
    4975              $C$DW$478       .dwtag  DW_TAG_TI_far_type
    4976                      .dwattr $C$DW$478, DW_AT_type(*$C$DW$T$20)
    4977              
    4978              $C$DW$T$129     .dwtag  DW_TAG_const_type
    4979                      .dwattr $C$DW$T$129, DW_AT_type(*$C$DW$478)
    4980              
    4981              $C$DW$T$2       .dwtag  DW_TAG_unspecified_type
    4982                      .dwattr $C$DW$T$2, DW_AT_name("void")
    4983              
    4984              $C$DW$T$3       .dwtag  DW_TAG_pointer_type
    4985                      .dwattr $C$DW$T$3, DW_AT_type(*$C$DW$T$2)
    4986                      .dwattr $C$DW$T$3, DW_AT_address_class(0x20)
    4987              
    4988              $C$DW$479       .dwtag  DW_TAG_TI_far_type
    4989                      .dwattr $C$DW$479, DW_AT_type(*$C$DW$T$3)
    4990              
    4991              $C$DW$T$131     .dwtag  DW_TAG_const_type
    4992                      .dwattr $C$DW$T$131, DW_AT_type(*$C$DW$479)
    4993              
    4994              $C$DW$T$4       .dwtag  DW_TAG_base_type
    4995                      .dwattr $C$DW$T$4, DW_AT_encoding(DW_ATE_boolean)
    4996                      .dwattr $C$DW$T$4, DW_AT_name("bool")
    4997                      .dwattr $C$DW$T$4, DW_AT_byte_size(0x01)
    4998              
    4999              $C$DW$T$5       .dwtag  DW_TAG_base_type
    5000                      .dwattr $C$DW$T$5, DW_AT_encoding(DW_ATE_signed_char)
    5001                      .dwattr $C$DW$T$5, DW_AT_name("signed char")
    5002                      .dwattr $C$DW$T$5, DW_AT_byte_size(0x01)
    5003              
    5004              $C$DW$T$6       .dwtag  DW_TAG_base_type
    5005                      .dwattr $C$DW$T$6, DW_AT_encoding(DW_ATE_unsigned_char)
    5006                      .dwattr $C$DW$T$6, DW_AT_name("unsigned char")
    5007                      .dwattr $C$DW$T$6, DW_AT_byte_size(0x01)
TMS320C2000 Assembler PC v15.12.3 Wed Jul 04 16:10:52 2018

Tools Copyright (c) 1996-2015 Texas Instruments Incorporated
C:\Users\a0393005\AppData\Local\Temp\1506410                         PAGE   95

    5008              
    5009              $C$DW$T$7       .dwtag  DW_TAG_base_type
    5010                      .dwattr $C$DW$T$7, DW_AT_encoding(DW_ATE_signed_char)
    5011                      .dwattr $C$DW$T$7, DW_AT_name("wchar_t")
    5012                      .dwattr $C$DW$T$7, DW_AT_byte_size(0x01)
    5013              
    5014              $C$DW$T$8       .dwtag  DW_TAG_base_type
    5015                      .dwattr $C$DW$T$8, DW_AT_encoding(DW_ATE_signed)
    5016                      .dwattr $C$DW$T$8, DW_AT_name("short")
    5017                      .dwattr $C$DW$T$8, DW_AT_byte_size(0x01)
    5018              
    5019              $C$DW$T$9       .dwtag  DW_TAG_base_type
    5020                      .dwattr $C$DW$T$9, DW_AT_encoding(DW_ATE_unsigned)
    5021                      .dwattr $C$DW$T$9, DW_AT_name("unsigned short")
    5022                      .dwattr $C$DW$T$9, DW_AT_byte_size(0x01)
    5023              
    5024              $C$DW$T$10      .dwtag  DW_TAG_base_type
    5025                      .dwattr $C$DW$T$10, DW_AT_encoding(DW_ATE_signed)
    5026                      .dwattr $C$DW$T$10, DW_AT_name("int")
    5027                      .dwattr $C$DW$T$10, DW_AT_byte_size(0x01)
    5028              
    5029              $C$DW$T$11      .dwtag  DW_TAG_base_type
    5030                      .dwattr $C$DW$T$11, DW_AT_encoding(DW_ATE_unsigned)
    5031                      .dwattr $C$DW$T$11, DW_AT_name("unsigned int")
    5032                      .dwattr $C$DW$T$11, DW_AT_byte_size(0x01)
    5033              
    5034              $C$DW$T$69      .dwtag  DW_TAG_typedef
    5035                      .dwattr $C$DW$T$69, DW_AT_name("uint16_t")
    5036                      .dwattr $C$DW$T$69, DW_AT_type(*$C$DW$T$11)
    5037                      .dwattr $C$DW$T$69, DW_AT_language(DW_LANG_C)
    5038              
    5039              $C$DW$T$149     .dwtag  DW_TAG_typedef
    5040                      .dwattr $C$DW$T$149, DW_AT_name("DRV8353_Word_t")
    5041                      .dwattr $C$DW$T$149, DW_AT_type(*$C$DW$T$69)
    5042                      .dwattr $C$DW$T$149, DW_AT_language(DW_LANG_C)
    5043              
    5044              $C$DW$480       .dwtag  DW_TAG_TI_far_type
    5045                      .dwattr $C$DW$480, DW_AT_type(*$C$DW$T$69)
    5046              
    5047              $C$DW$T$73      .dwtag  DW_TAG_volatile_type
    5048                      .dwattr $C$DW$T$73, DW_AT_type(*$C$DW$480)
    5049              
    5050              
    5051              $C$DW$T$74      .dwtag  DW_TAG_array_type
    5052                      .dwattr $C$DW$T$74, DW_AT_type(*$C$DW$T$73)
    5053                      .dwattr $C$DW$T$74, DW_AT_language(DW_LANG_C)
    5054                      .dwattr $C$DW$T$74, DW_AT_byte_size(0x02)
    5055              $C$DW$481       .dwtag  DW_TAG_subrange_type
    5056                      .dwattr $C$DW$481, DW_AT_upper_bound(0x01)
    5057              
    5058                      .dwendtag $C$DW$T$74
    5059              
    5060              
    5061              $C$DW$T$75      .dwtag  DW_TAG_array_type
    5062                      .dwattr $C$DW$T$75, DW_AT_type(*$C$DW$T$73)
TMS320C2000 Assembler PC v15.12.3 Wed Jul 04 16:10:52 2018

Tools Copyright (c) 1996-2015 Texas Instruments Incorporated
C:\Users\a0393005\AppData\Local\Temp\1506410                         PAGE   96

    5063                      .dwattr $C$DW$T$75, DW_AT_language(DW_LANG_C)
    5064                      .dwattr $C$DW$T$75, DW_AT_byte_size(0x18)
    5065              $C$DW$482       .dwtag  DW_TAG_subrange_type
    5066                      .dwattr $C$DW$482, DW_AT_upper_bound(0x17)
    5067              
    5068                      .dwendtag $C$DW$T$75
    5069              
    5070              
    5071              $C$DW$T$76      .dwtag  DW_TAG_array_type
    5072                      .dwattr $C$DW$T$76, DW_AT_type(*$C$DW$T$73)
    5073                      .dwattr $C$DW$T$76, DW_AT_language(DW_LANG_C)
    5074                      .dwattr $C$DW$T$76, DW_AT_byte_size(0x04)
    5075              $C$DW$483       .dwtag  DW_TAG_subrange_type
    5076                      .dwattr $C$DW$483, DW_AT_upper_bound(0x03)
    5077              
    5078                      .dwendtag $C$DW$T$76
    5079              
    5080              
    5081              $C$DW$T$77      .dwtag  DW_TAG_array_type
    5082                      .dwattr $C$DW$T$77, DW_AT_type(*$C$DW$T$73)
    5083                      .dwattr $C$DW$T$77, DW_AT_language(DW_LANG_C)
    5084                      .dwattr $C$DW$T$77, DW_AT_byte_size(0x08)
    5085              $C$DW$484       .dwtag  DW_TAG_subrange_type
    5086                      .dwattr $C$DW$484, DW_AT_upper_bound(0x07)
    5087              
    5088                      .dwendtag $C$DW$T$77
    5089              
    5090              
    5091              $C$DW$T$78      .dwtag  DW_TAG_array_type
    5092                      .dwattr $C$DW$T$78, DW_AT_type(*$C$DW$T$73)
    5093                      .dwattr $C$DW$T$78, DW_AT_language(DW_LANG_C)
    5094                      .dwattr $C$DW$T$78, DW_AT_byte_size(0x03)
    5095              $C$DW$485       .dwtag  DW_TAG_subrange_type
    5096                      .dwattr $C$DW$485, DW_AT_upper_bound(0x02)
    5097              
    5098                      .dwendtag $C$DW$T$78
    5099              
    5100              
    5101              $C$DW$T$79      .dwtag  DW_TAG_array_type
    5102                      .dwattr $C$DW$T$79, DW_AT_type(*$C$DW$T$73)
    5103                      .dwattr $C$DW$T$79, DW_AT_language(DW_LANG_C)
    5104                      .dwattr $C$DW$T$79, DW_AT_byte_size(0x05)
    5105              $C$DW$486       .dwtag  DW_TAG_subrange_type
    5106                      .dwattr $C$DW$486, DW_AT_upper_bound(0x04)
    5107              
    5108                      .dwendtag $C$DW$T$79
    5109              
    5110              $C$DW$487       .dwtag  DW_TAG_TI_far_type
    5111                      .dwattr $C$DW$487, DW_AT_type(*$C$DW$T$69)
    5112              
    5113              $C$DW$T$134     .dwtag  DW_TAG_const_type
    5114                      .dwattr $C$DW$T$134, DW_AT_type(*$C$DW$487)
    5115              
    5116              $C$DW$T$12      .dwtag  DW_TAG_base_type
    5117                      .dwattr $C$DW$T$12, DW_AT_encoding(DW_ATE_signed)
TMS320C2000 Assembler PC v15.12.3 Wed Jul 04 16:10:52 2018

Tools Copyright (c) 1996-2015 Texas Instruments Incorporated
C:\Users\a0393005\AppData\Local\Temp\1506410                         PAGE   97

    5118                      .dwattr $C$DW$T$12, DW_AT_name("long")
    5119                      .dwattr $C$DW$T$12, DW_AT_byte_size(0x02)
    5120              
    5121              $C$DW$T$13      .dwtag  DW_TAG_base_type
    5122                      .dwattr $C$DW$T$13, DW_AT_encoding(DW_ATE_unsigned)
    5123                      .dwattr $C$DW$T$13, DW_AT_name("unsigned long")
    5124                      .dwattr $C$DW$T$13, DW_AT_byte_size(0x02)
    5125              
    5126              $C$DW$T$116     .dwtag  DW_TAG_typedef
    5127                      .dwattr $C$DW$T$116, DW_AT_name("size_t")
    5128                      .dwattr $C$DW$T$116, DW_AT_type(*$C$DW$T$13)
    5129                      .dwattr $C$DW$T$116, DW_AT_language(DW_LANG_C)
    5130              
    5131              $C$DW$488       .dwtag  DW_TAG_TI_far_type
    5132                      .dwattr $C$DW$488, DW_AT_type(*$C$DW$T$116)
    5133              
    5134              $C$DW$T$117     .dwtag  DW_TAG_const_type
    5135                      .dwattr $C$DW$T$117, DW_AT_type(*$C$DW$488)
    5136              
    5137              $C$DW$T$71      .dwtag  DW_TAG_typedef
    5138                      .dwattr $C$DW$T$71, DW_AT_name("uint32_t")
    5139                      .dwattr $C$DW$T$71, DW_AT_type(*$C$DW$T$13)
    5140                      .dwattr $C$DW$T$71, DW_AT_language(DW_LANG_C)
    5141              
    5142              $C$DW$489       .dwtag  DW_TAG_TI_far_type
    5143                      .dwattr $C$DW$489, DW_AT_type(*$C$DW$T$71)
    5144              
    5145              $C$DW$T$72      .dwtag  DW_TAG_volatile_type
    5146                      .dwattr $C$DW$T$72, DW_AT_type(*$C$DW$489)
    5147              
    5148              $C$DW$T$14      .dwtag  DW_TAG_base_type
    5149                      .dwattr $C$DW$T$14, DW_AT_encoding(DW_ATE_signed)
    5150                      .dwattr $C$DW$T$14, DW_AT_name("long long")
    5151                      .dwattr $C$DW$T$14, DW_AT_byte_size(0x04)
    5152              
    5153              $C$DW$T$15      .dwtag  DW_TAG_base_type
    5154                      .dwattr $C$DW$T$15, DW_AT_encoding(DW_ATE_unsigned)
    5155                      .dwattr $C$DW$T$15, DW_AT_name("unsigned long long")
    5156                      .dwattr $C$DW$T$15, DW_AT_byte_size(0x04)
    5157              
    5158              $C$DW$T$16      .dwtag  DW_TAG_base_type
    5159                      .dwattr $C$DW$T$16, DW_AT_encoding(DW_ATE_float)
    5160                      .dwattr $C$DW$T$16, DW_AT_name("float")
    5161                      .dwattr $C$DW$T$16, DW_AT_byte_size(0x02)
    5162              
    5163              $C$DW$T$17      .dwtag  DW_TAG_base_type
    5164                      .dwattr $C$DW$T$17, DW_AT_encoding(DW_ATE_float)
    5165                      .dwattr $C$DW$T$17, DW_AT_name("double")
    5166                      .dwattr $C$DW$T$17, DW_AT_byte_size(0x02)
    5167              
    5168              $C$DW$T$18      .dwtag  DW_TAG_base_type
    5169                      .dwattr $C$DW$T$18, DW_AT_encoding(DW_ATE_float)
    5170                      .dwattr $C$DW$T$18, DW_AT_name("long double")
    5171                      .dwattr $C$DW$T$18, DW_AT_byte_size(0x04)
    5172              
TMS320C2000 Assembler PC v15.12.3 Wed Jul 04 16:10:52 2018

Tools Copyright (c) 1996-2015 Texas Instruments Incorporated
C:\Users\a0393005\AppData\Local\Temp\1506410                         PAGE   98

    5173              $C$DW$T$25      .dwtag  DW_TAG_base_type
    5174                      .dwattr $C$DW$T$25, DW_AT_encoding(DW_ATE_unsigned_char)
    5175                      .dwattr $C$DW$T$25, DW_AT_name("unsigned char")
    5176                      .dwattr $C$DW$T$25, DW_AT_byte_size(0x01)
    5177              
    5178                      .dwattr $C$DW$CU, DW_AT_language(DW_LANG_C)
    5179              
    5180              ;***************************************************************
    5181              ;* DWARF CIE ENTRIES                                           *
    5182              ;***************************************************************
    5183              
    5184              $C$DW$CIE       .dwcie 26
    5185                      .dwcfi  cfa_register, 20
    5186                      .dwcfi  cfa_offset, 0
    5187                      .dwcfi  undefined, 0
    5188                      .dwcfi  undefined, 1
    5189                      .dwcfi  undefined, 2
    5190                      .dwcfi  undefined, 3
    5191                      .dwcfi  undefined, 20
    5192                      .dwcfi  undefined, 21
    5193                      .dwcfi  undefined, 22
    5194                      .dwcfi  undefined, 23
    5195                      .dwcfi  undefined, 24
    5196                      .dwcfi  undefined, 25
    5197                      .dwcfi  undefined, 26
    5198                      .dwcfi  same_value, 28
    5199                      .dwcfi  undefined, 29
    5200                      .dwcfi  undefined, 30
    5201                      .dwcfi  undefined, 31
    5202                      .dwcfi  undefined, 32
    5203                      .dwcfi  undefined, 33
    5204                      .dwcfi  undefined, 34
    5205                      .dwcfi  undefined, 35
    5206                      .dwcfi  undefined, 36
    5207                      .dwcfi  undefined, 37
    5208                      .dwcfi  undefined, 38
    5209                      .dwcfi  undefined, 75
    5210                      .dwcfi  undefined, 76
    5211                      .dwcfi  undefined, 77
    5212                      .dwcfi  undefined, 4
    5213                      .dwcfi  undefined, 5
    5214                      .dwcfi  same_value, 6
    5215                      .dwcfi  same_value, 7
    5216                      .dwcfi  same_value, 8
    5217                      .dwcfi  same_value, 9
    5218                      .dwcfi  same_value, 10
    5219                      .dwcfi  same_value, 11
    5220                      .dwcfi  undefined, 12
    5221                      .dwcfi  undefined, 13
    5222                      .dwcfi  undefined, 14
    5223                      .dwcfi  undefined, 15
    5224                      .dwcfi  undefined, 16
    5225                      .dwcfi  undefined, 17
    5226                      .dwcfi  undefined, 18
    5227                      .dwcfi  undefined, 19
TMS320C2000 Assembler PC v15.12.3 Wed Jul 04 16:10:52 2018

Tools Copyright (c) 1996-2015 Texas Instruments Incorporated
C:\Users\a0393005\AppData\Local\Temp\1506410                         PAGE   99

    5228                      .dwendentry
    5229              
    5230              ;***************************************************************
    5231              ;* DWARF REGISTER MAP                                          *
    5232              ;***************************************************************
    5233              
    5234              $C$DW$490       .dwtag  DW_TAG_TI_assign_register
    5235                      .dwattr $C$DW$490, DW_AT_name("AL")
    5236                      .dwattr $C$DW$490, DW_AT_location[DW_OP_reg0]
    5237              
    5238              $C$DW$491       .dwtag  DW_TAG_TI_assign_register
    5239                      .dwattr $C$DW$491, DW_AT_name("AH")
    5240                      .dwattr $C$DW$491, DW_AT_location[DW_OP_reg1]
    5241              
    5242              $C$DW$492       .dwtag  DW_TAG_TI_assign_register
    5243                      .dwattr $C$DW$492, DW_AT_name("PL")
    5244                      .dwattr $C$DW$492, DW_AT_location[DW_OP_reg2]
    5245              
    5246              $C$DW$493       .dwtag  DW_TAG_TI_assign_register
    5247                      .dwattr $C$DW$493, DW_AT_name("PH")
    5248                      .dwattr $C$DW$493, DW_AT_location[DW_OP_reg3]
    5249              
    5250              $C$DW$494       .dwtag  DW_TAG_TI_assign_register
    5251                      .dwattr $C$DW$494, DW_AT_name("SP")
    5252                      .dwattr $C$DW$494, DW_AT_location[DW_OP_reg20]
    5253              
    5254              $C$DW$495       .dwtag  DW_TAG_TI_assign_register
    5255                      .dwattr $C$DW$495, DW_AT_name("XT")
    5256                      .dwattr $C$DW$495, DW_AT_location[DW_OP_reg21]
    5257              
    5258              $C$DW$496       .dwtag  DW_TAG_TI_assign_register
    5259                      .dwattr $C$DW$496, DW_AT_name("T")
    5260                      .dwattr $C$DW$496, DW_AT_location[DW_OP_reg22]
    5261              
    5262              $C$DW$497       .dwtag  DW_TAG_TI_assign_register
    5263                      .dwattr $C$DW$497, DW_AT_name("ST0")
    5264                      .dwattr $C$DW$497, DW_AT_location[DW_OP_reg23]
    5265              
    5266              $C$DW$498       .dwtag  DW_TAG_TI_assign_register
    5267                      .dwattr $C$DW$498, DW_AT_name("ST1")
    5268                      .dwattr $C$DW$498, DW_AT_location[DW_OP_reg24]
    5269              
    5270              $C$DW$499       .dwtag  DW_TAG_TI_assign_register
    5271                      .dwattr $C$DW$499, DW_AT_name("PC")
    5272                      .dwattr $C$DW$499, DW_AT_location[DW_OP_reg25]
    5273              
    5274              $C$DW$500       .dwtag  DW_TAG_TI_assign_register
    5275                      .dwattr $C$DW$500, DW_AT_name("RPC")
    5276                      .dwattr $C$DW$500, DW_AT_location[DW_OP_reg26]
    5277              
    5278              $C$DW$501       .dwtag  DW_TAG_TI_assign_register
    5279                      .dwattr $C$DW$501, DW_AT_name("FP")
    5280                      .dwattr $C$DW$501, DW_AT_location[DW_OP_reg28]
    5281              
    5282              $C$DW$502       .dwtag  DW_TAG_TI_assign_register
TMS320C2000 Assembler PC v15.12.3 Wed Jul 04 16:10:52 2018

Tools Copyright (c) 1996-2015 Texas Instruments Incorporated
C:\Users\a0393005\AppData\Local\Temp\1506410                         PAGE  100

    5283                      .dwattr $C$DW$502, DW_AT_name("DP")
    5284                      .dwattr $C$DW$502, DW_AT_location[DW_OP_reg29]
    5285              
    5286              $C$DW$503       .dwtag  DW_TAG_TI_assign_register
    5287                      .dwattr $C$DW$503, DW_AT_name("SXM")
    5288                      .dwattr $C$DW$503, DW_AT_location[DW_OP_reg30]
    5289              
    5290              $C$DW$504       .dwtag  DW_TAG_TI_assign_register
    5291                      .dwattr $C$DW$504, DW_AT_name("PM")
    5292                      .dwattr $C$DW$504, DW_AT_location[DW_OP_reg31]
    5293              
    5294              $C$DW$505       .dwtag  DW_TAG_TI_assign_register
    5295                      .dwattr $C$DW$505, DW_AT_name("OVM")
    5296                      .dwattr $C$DW$505, DW_AT_location[DW_OP_regx 0x20]
    5297              
    5298              $C$DW$506       .dwtag  DW_TAG_TI_assign_register
    5299                      .dwattr $C$DW$506, DW_AT_name("PAGE0")
    5300                      .dwattr $C$DW$506, DW_AT_location[DW_OP_regx 0x21]
    5301              
    5302              $C$DW$507       .dwtag  DW_TAG_TI_assign_register
    5303                      .dwattr $C$DW$507, DW_AT_name("AMODE")
    5304                      .dwattr $C$DW$507, DW_AT_location[DW_OP_regx 0x22]
    5305              
    5306              $C$DW$508       .dwtag  DW_TAG_TI_assign_register
    5307                      .dwattr $C$DW$508, DW_AT_name("INTM")
    5308                      .dwattr $C$DW$508, DW_AT_location[DW_OP_regx 0x23]
    5309              
    5310              $C$DW$509       .dwtag  DW_TAG_TI_assign_register
    5311                      .dwattr $C$DW$509, DW_AT_name("IFR")
    5312                      .dwattr $C$DW$509, DW_AT_location[DW_OP_regx 0x24]
    5313              
    5314              $C$DW$510       .dwtag  DW_TAG_TI_assign_register
    5315                      .dwattr $C$DW$510, DW_AT_name("IER")
    5316                      .dwattr $C$DW$510, DW_AT_location[DW_OP_regx 0x25]
    5317              
    5318              $C$DW$511       .dwtag  DW_TAG_TI_assign_register
    5319                      .dwattr $C$DW$511, DW_AT_name("V")
    5320                      .dwattr $C$DW$511, DW_AT_location[DW_OP_regx 0x26]
    5321              
    5322              $C$DW$512       .dwtag  DW_TAG_TI_assign_register
    5323                      .dwattr $C$DW$512, DW_AT_name("PSEUDOH")
    5324                      .dwattr $C$DW$512, DW_AT_location[DW_OP_regx 0x4c]
    5325              
    5326              $C$DW$513       .dwtag  DW_TAG_TI_assign_register
    5327                      .dwattr $C$DW$513, DW_AT_name("VOL")
    5328                      .dwattr $C$DW$513, DW_AT_location[DW_OP_regx 0x4d]
    5329              
    5330              $C$DW$514       .dwtag  DW_TAG_TI_assign_register
    5331                      .dwattr $C$DW$514, DW_AT_name("AR0")
    5332                      .dwattr $C$DW$514, DW_AT_location[DW_OP_reg4]
    5333              
    5334              $C$DW$515       .dwtag  DW_TAG_TI_assign_register
    5335                      .dwattr $C$DW$515, DW_AT_name("XAR0")
    5336                      .dwattr $C$DW$515, DW_AT_location[DW_OP_reg5]
    5337              
TMS320C2000 Assembler PC v15.12.3 Wed Jul 04 16:10:52 2018

Tools Copyright (c) 1996-2015 Texas Instruments Incorporated
C:\Users\a0393005\AppData\Local\Temp\1506410                         PAGE  101

    5338              $C$DW$516       .dwtag  DW_TAG_TI_assign_register
    5339                      .dwattr $C$DW$516, DW_AT_name("AR1")
    5340                      .dwattr $C$DW$516, DW_AT_location[DW_OP_reg6]
    5341              
    5342              $C$DW$517       .dwtag  DW_TAG_TI_assign_register
    5343                      .dwattr $C$DW$517, DW_AT_name("XAR1")
    5344                      .dwattr $C$DW$517, DW_AT_location[DW_OP_reg7]
    5345              
    5346              $C$DW$518       .dwtag  DW_TAG_TI_assign_register
    5347                      .dwattr $C$DW$518, DW_AT_name("AR2")
    5348                      .dwattr $C$DW$518, DW_AT_location[DW_OP_reg8]
    5349              
    5350              $C$DW$519       .dwtag  DW_TAG_TI_assign_register
    5351                      .dwattr $C$DW$519, DW_AT_name("XAR2")
    5352                      .dwattr $C$DW$519, DW_AT_location[DW_OP_reg9]
    5353              
    5354              $C$DW$520       .dwtag  DW_TAG_TI_assign_register
    5355                      .dwattr $C$DW$520, DW_AT_name("AR3")
    5356                      .dwattr $C$DW$520, DW_AT_location[DW_OP_reg10]
    5357              
    5358              $C$DW$521       .dwtag  DW_TAG_TI_assign_register
    5359                      .dwattr $C$DW$521, DW_AT_name("XAR3")
    5360                      .dwattr $C$DW$521, DW_AT_location[DW_OP_reg11]
    5361              
    5362              $C$DW$522       .dwtag  DW_TAG_TI_assign_register
    5363                      .dwattr $C$DW$522, DW_AT_name("AR4")
    5364                      .dwattr $C$DW$522, DW_AT_location[DW_OP_reg12]
    5365              
    5366              $C$DW$523       .dwtag  DW_TAG_TI_assign_register
    5367                      .dwattr $C$DW$523, DW_AT_name("XAR4")
    5368                      .dwattr $C$DW$523, DW_AT_location[DW_OP_reg13]
    5369              
    5370              $C$DW$524       .dwtag  DW_TAG_TI_assign_register
    5371                      .dwattr $C$DW$524, DW_AT_name("AR5")
    5372                      .dwattr $C$DW$524, DW_AT_location[DW_OP_reg14]
    5373              
    5374              $C$DW$525       .dwtag  DW_TAG_TI_assign_register
    5375                      .dwattr $C$DW$525, DW_AT_name("XAR5")
    5376                      .dwattr $C$DW$525, DW_AT_location[DW_OP_reg15]
    5377              
    5378              $C$DW$526       .dwtag  DW_TAG_TI_assign_register
    5379                      .dwattr $C$DW$526, DW_AT_name("AR6")
    5380                      .dwattr $C$DW$526, DW_AT_location[DW_OP_reg16]
    5381              
    5382              $C$DW$527       .dwtag  DW_TAG_TI_assign_register
    5383                      .dwattr $C$DW$527, DW_AT_name("XAR6")
    5384                      .dwattr $C$DW$527, DW_AT_location[DW_OP_reg17]
    5385              
    5386              $C$DW$528       .dwtag  DW_TAG_TI_assign_register
    5387                      .dwattr $C$DW$528, DW_AT_name("AR7")
    5388                      .dwattr $C$DW$528, DW_AT_location[DW_OP_reg18]
    5389              
    5390              $C$DW$529       .dwtag  DW_TAG_TI_assign_register
    5391                      .dwattr $C$DW$529, DW_AT_name("XAR7")
    5392                      .dwattr $C$DW$529, DW_AT_location[DW_OP_reg19]
TMS320C2000 Assembler PC v15.12.3 Wed Jul 04 16:10:52 2018

Tools Copyright (c) 1996-2015 Texas Instruments Incorporated
C:\Users\a0393005\AppData\Local\Temp\1506410                         PAGE  102

    5393              
    5394                      .dwendtag $C$DW$CU
    5395              

No Assembly Errors, No Assembly Warnings
